Component: Arm Compiler for Embedded 6.19 Tool: armlink [5e73cb00]

==============================================================================

Section Cross References

    main.o(.text) refers to system_gd32f10x.o(.text) for SystemCoreClockUpdate
    main.o(.text) refers to system_gd32f10x.o(.data.SystemCoreClock) for SystemCoreClock
    main.o(.text) refers to setup.o(.text) for Interrupt_init
    main.o(.text) refers to gd32f10x_gpio.o(.text) for gpio_bit_write
    main.o(.text) refers to gd32f10x_fwdgt.o(.text) for fwdgt_counter_reload
    main.o(.text) refers to bldc.o(.bss.buzzerFreq) for buzzerFreq
    main.o(.text) refers to it.o(.text) for Delay
    main.o(.text) refers to main.o(.bss.inactivity_timeout_counter) for inactivity_timeout_counter
    main.o(.text) refers to main.o(.bss.steerCounter) for steerCounter
    main.o(.text) refers to main.o(.bss.steer) for steer
    main.o(.text) refers to main.o(.bss.speed) for speed
    main.o(.text) refers to fflt_clz.o(x$fpl$fflt) for __aeabi_i2f
    main.o(.text) refers to fmul.o(x$fpl$fmul) for __aeabi_fmul
    main.o(.text) refers to ffix.o(x$fpl$ffix) for __aeabi_f2iz
    main.o(.text) refers to faddsub_clz.o(x$fpl$fsub) for __aeabi_fsub
    main.o(.text) refers to fdiv.o(x$fpl$fdiv) for __aeabi_fdiv
    main.o(.text) refers to faddsub_clz.o(x$fpl$fadd) for __aeabi_fadd
    main.o(.text) refers to main.o(.rodata.lookUpTableAngle) for lookUpTableAngle
    main.o(.text) refers to fcmp.o(x$fpl$fcmp) for __aeabi_fcmplt
    main.o(.text) refers to bldc.o(.text) for SetEnable
    main.o(.text) refers to bldc.o(.data.batteryVoltage) for batteryVoltage
    main.o(.text) refers to main.o(.bss.beepsBackwards) for beepsBackwards
    main.o(.text) refers to bldc.o(.bss.buzzerPattern) for buzzerPattern
    main.o(.ARM.exidx) refers to main.o(.text) for [Anonymous Symbol]
    bldc.o(.text) refers to bldc.o(.bss.bldc_enable) for bldc_enable
    bldc.o(.text) refers to bldc.o(.bss.bldc_inputFilterPwm) for bldc_inputFilterPwm
    bldc.o(.text) refers to bldc.o(.bss.offsetcount) for offsetcount
    bldc.o(.text) refers to bldc.o(.bss.adc_buffer) for adc_buffer
    bldc.o(.text) refers to bldc.o(.data.offsetdc) for offsetdc
    bldc.o(.text) refers to bldc.o(.bss.buzzerTimer) for buzzerTimer
    bldc.o(.text) refers to bldc.o(.data.batteryVoltage) for batteryVoltage
    bldc.o(.text) refers to f2d.o(x$fpl$f2d) for __aeabi_f2d
    bldc.o(.text) refers to dflt_clz.o(x$fpl$dfltu) for __aeabi_ui2d
    bldc.o(.text) refers to dmul.o(x$fpl$dmul) for __aeabi_dmul
    bldc.o(.text) refers to daddsub_clz.o(x$fpl$dadd) for __aeabi_dadd
    bldc.o(.text) refers to d2f.o(x$fpl$d2f) for __aeabi_d2f
    bldc.o(.text) refers to bldc.o(.bss.buzzerFreq) for buzzerFreq
    bldc.o(.text) refers to bldc.o(.bss.buzzerPattern) for buzzerPattern
    bldc.o(.text) refers to gd32f10x_gpio.o(.text) for gpio_bit_write
    bldc.o(.text) refers to dflt_clz.o(x$fpl$dflt) for __aeabi_i2d
    bldc.o(.text) refers to bldc.o(.bss.currentDC) for currentDC
    bldc.o(.text) refers to fcmp.o(x$fpl$fcmp) for __aeabi_fcmple
    bldc.o(.text) refers to gd32f10x_timer.o(.text) for timer_automatic_output_disable
    bldc.o(.text) refers to bldc.o(.bss.hall_a) for hall_a
    bldc.o(.text) refers to bldc.o(.bss.hall_b) for hall_b
    bldc.o(.text) refers to bldc.o(.bss.hall_c) for hall_c
    bldc.o(.text) refers to bldc.o(.bss.hall) for hall
    bldc.o(.text) refers to bldc.o(.rodata.hall_to_pos) for hall_to_pos
    bldc.o(.text) refers to bldc.o(.bss.filter_reg) for filter_reg
    bldc.o(.text) refers to bldc.o(.bss.pos) for pos
    bldc.o(.text) refers to bldc.o(.bss.bldc_outputFilterPwm) for bldc_outputFilterPwm
    bldc.o(.text) refers to bldc.o(.bss.buzzerToggle) for buzzerToggle
    bldc.o(.text) refers to bldc.o(.bss.speedCounter) for speedCounter
    bldc.o(.text) refers to bldc.o(.bss.lastPos) for lastPos
    bldc.o(.text) refers to fflt_clz.o(x$fpl$ffltu) for __aeabi_ui2f
    bldc.o(.text) refers to fdiv.o(x$fpl$fdiv) for __aeabi_fdiv
    bldc.o(.text) refers to bldc.o(.bss.realSpeed) for realSpeed
    bldc.o(.ARM.exidx) refers to bldc.o(.text) for [Anonymous Symbol]
    setup.o(.text) refers to gd32f10x_misc.o(.text) for nvic_priority_group_set
    setup.o(.text) refers to gd32f10x_rcu.o(.text) for rcu_flag_get
    setup.o(.text) refers to gd32f10x_fwdgt.o(.text) for fwdgt_config
    setup.o(.text) refers to gd32f10x_timer.o(.text) for timer_deinit
    setup.o(.text) refers to setup.o(.bss.timeoutTimer_paramter_struct) for timeoutTimer_paramter_struct
    setup.o(.text) refers to gd32f10x_gpio.o(.text) for gpio_init
    setup.o(.text) refers to setup.o(.bss.timerBldc_paramter_struct) for timerBldc_paramter_struct
    setup.o(.text) refers to setup.o(.bss.timerBldc_oc_parameter_struct) for timerBldc_oc_parameter_struct
    setup.o(.text) refers to setup.o(.bss.timerBldc_break_parameter_struct) for timerBldc_break_parameter_struct
    setup.o(.text) refers to gd32f10x_adc.o(.text) for adc_channel_length_config
    setup.o(.text) refers to gd32f10x_dma.o(.text) for dma_deinit
    setup.o(.text) refers to setup.o(.bss.dma_init_struct_adc) for dma_init_struct_adc
    setup.o(.text) refers to bldc.o(.bss.adc_buffer) for adc_buffer
    setup.o(.text) refers to gd32f10x_usart.o(.text) for usart_deinit
    setup.o(.text) refers to setup.o(.bss.dma_init_struct_usart) for dma_init_struct_usart
    setup.o(.text) refers to setup.o(.bss.usartMasterSlave_rx_buf) for usartMasterSlave_rx_buf
    setup.o(.text) refers to setup.o(.bss.usartSteer_COM_rx_buf) for usartSteer_COM_rx_buf
    setup.o(.ARM.exidx) refers to setup.o(.text) for [Anonymous Symbol]
    it.o(.text) refers to it.o(.bss.msTicks) for msTicks
    it.o(.text) refers to it.o(.bss.timeoutCounter_ms) for timeoutCounter_ms
    it.o(.text) refers to it.o(.data.timedOut) for timedOut
    it.o(.text) refers to main.o(.bss.steer) for steer
    it.o(.text) refers to main.o(.bss.speed) for speed
    it.o(.text) refers to main.o(.bss.beepsBackwards) for beepsBackwards
    it.o(.text) refers to gd32f10x_timer.o(.text) for timer_interrupt_flag_clear
    it.o(.text) refers to gd32f10x_adc.o(.text) for adc_software_trigger_enable
    it.o(.text) refers to bldc.o(.text) for CalculateBLDC
    it.o(.text) refers to gd32f10x_dma.o(.text) for dma_interrupt_flag_get
    it.o(.text) refers to commssteering.o(.text) for UpdateUSARTSteerInput
    it.o(.text) refers to commsmasterslave.o(.text) for UpdateUSARTMasterSlaveInput
    it.o(.ARM.exidx) refers to it.o(.text) for [Anonymous Symbol]
    comms.o(.text) refers to gd32f10x_usart.o(.text) for usart_data_transmit
    comms.o(.ARM.exidx) refers to comms.o(.text) for [Anonymous Symbol]
    commssteering.o(.text) refers to comms.o(.text) for SendBuffer
    commssteering.o(.text) refers to setup.o(.bss.usartSteer_COM_rx_buf) for usartSteer_COM_rx_buf
    commssteering.o(.text) refers to commssteering.o(.bss.sSteerRecord) for sSteerRecord
    commssteering.o(.text) refers to commssteering.o(.bss.sUSARTSteerRecordBuffer) for sUSARTSteerRecordBuffer
    commssteering.o(.text) refers to commssteering.o(.bss.sUSARTSteerRecordBufferCounter) for sUSARTSteerRecordBufferCounter
    commssteering.o(.text) refers to main.o(.bss.speed) for speed
    commssteering.o(.text) refers to main.o(.bss.steer) for steer
    commssteering.o(.text) refers to it.o(.text) for ResetTimeout
    commssteering.o(.ARM.exidx) refers to commssteering.o(.text) for [Anonymous Symbol]
    commsmasterslave.o(.text) refers to setup.o(.bss.usartMasterSlave_rx_buf) for usartMasterSlave_rx_buf
    commsmasterslave.o(.text) refers to commsmasterslave.o(.bss.sMasterSlaveRecord) for sMasterSlaveRecord
    commsmasterslave.o(.text) refers to commsmasterslave.o(.bss.sUSARTMasterSlaveRecordBuffer) for sUSARTMasterSlaveRecordBuffer
    commsmasterslave.o(.text) refers to commsmasterslave.o(.bss.sUSARTMasterSlaveRecordBufferCounter) for sUSARTMasterSlaveRecordBufferCounter
    commsmasterslave.o(.text) refers to comms.o(.text) for CalcCRC
    commsmasterslave.o(.text) refers to main.o(.bss.beepsBackwards) for beepsBackwards
    commsmasterslave.o(.ARM.exidx) refers to commsmasterslave.o(.text) for [Anonymous Symbol]
    gd32f10x_adc.o(.text) refers to gd32f10x_rcu.o(.text) for rcu_periph_reset_enable
    gd32f10x_adc.o(.ARM.exidx) refers to gd32f10x_adc.o(.text) for [Anonymous Symbol]
    gd32f10x_dbg.o(.ARM.exidx) refers to gd32f10x_dbg.o(.text) for [Anonymous Symbol]
    gd32f10x_dma.o(.ARM.exidx) refers to gd32f10x_dma.o(.text) for [Anonymous Symbol]
    gd32f10x_fwdgt.o(.ARM.exidx) refers to gd32f10x_fwdgt.o(.text) for [Anonymous Symbol]
    gd32f10x_gpio.o(.text) refers to gd32f10x_rcu.o(.text) for rcu_periph_reset_enable
    gd32f10x_gpio.o(.ARM.exidx) refers to gd32f10x_gpio.o(.text) for [Anonymous Symbol]
    gd32f10x_i2c.o(.text) refers to gd32f10x_rcu.o(.text) for rcu_periph_reset_enable
    gd32f10x_i2c.o(.ARM.exidx) refers to gd32f10x_i2c.o(.text) for [Anonymous Symbol]
    gd32f10x_misc.o(.ARM.exidx) refers to gd32f10x_misc.o(.text) for [Anonymous Symbol]
    gd32f10x_pmu.o(.text) refers to gd32f10x_rcu.o(.text) for rcu_periph_reset_enable
    gd32f10x_pmu.o(.ARM.exidx) refers to gd32f10x_pmu.o(.text) for [Anonymous Symbol]
    gd32f10x_rcu.o(.text) refers to gd32f10x_rcu.o(.rodata.cst8) for .L__const.rcu_clock_freq_get.apb2_exp
    gd32f10x_rcu.o(.ARM.exidx) refers to gd32f10x_rcu.o(.text) for [Anonymous Symbol]
    gd32f10x_timer.o(.text) refers to gd32f10x_rcu.o(.text) for rcu_periph_reset_enable
    gd32f10x_timer.o(.ARM.exidx) refers to gd32f10x_timer.o(.text) for [Anonymous Symbol]
    gd32f10x_usart.o(.text) refers to gd32f10x_rcu.o(.text) for rcu_periph_reset_enable
    gd32f10x_usart.o(.ARM.exidx) refers to gd32f10x_usart.o(.text) for [Anonymous Symbol]
    gd32f10x_wwdgt.o(.text) refers to gd32f10x_rcu.o(.text) for rcu_periph_reset_enable
    gd32f10x_wwdgt.o(.ARM.exidx) refers to gd32f10x_wwdgt.o(.text) for [Anonymous Symbol]
    startup_gd32f10x_hd.o(STACK) refers (Special) to heapauxi.o(.text) for __use_two_region_memory
    startup_gd32f10x_hd.o(HEAP) refers (Special) to heapauxi.o(.text) for __use_two_region_memory
    startup_gd32f10x_hd.o(RESET) refers (Special) to heapauxi.o(.text) for __use_two_region_memory
    startup_gd32f10x_hd.o(RESET) refers to startup_gd32f10x_hd.o(STACK) for __initial_sp
    startup_gd32f10x_hd.o(RESET) refers to startup_gd32f10x_hd.o(.text) for Reset_Handler
    startup_gd32f10x_hd.o(RESET) refers to it.o(.text) for NMI_Handler
    startup_gd32f10x_hd.o(.text) refers (Special) to heapauxi.o(.text) for __use_two_region_memory
    startup_gd32f10x_hd.o(.text) refers to system_gd32f10x.o(.text) for SystemInit
    startup_gd32f10x_hd.o(.text) refers to __main.o(!!!main) for __main
    startup_gd32f10x_hd.o(.text) refers to startup_gd32f10x_hd.o(HEAP) for Heap_Mem
    startup_gd32f10x_hd.o(.text) refers to startup_gd32f10x_hd.o(STACK) for Stack_Mem
    system_gd32f10x.o(.text) refers to system_gd32f10x.o(.data.SystemCoreClock) for SystemCoreClock
    system_gd32f10x.o(.ARM.exidx) refers to system_gd32f10x.o(.text) for [Anonymous Symbol]
    __main.o(!!!main) refers to __rtentry.o(.ARM.Collect$$rtentry$$00000000) for __rt_entry
    d2f.o(x$fpl$d2f) refers (Special) to usenofp.o(x$fpl$usenofp) for __I$use$fp
    d2f.o(x$fpl$d2f) refers to fretinf.o(x$fpl$fretinf) for __fpl_fretinf
    d2f.o(x$fpl$d2f) refers to dnaninf.o(x$fpl$dnaninf) for __fpl_dnaninf
    daddsub_clz.o(x$fpl$dadd) refers (Special) to usenofp.o(x$fpl$usenofp) for __I$use$fp
    daddsub_clz.o(x$fpl$dadd) refers to daddsub_clz.o(x$fpl$dsub) for _dsub1
    daddsub_clz.o(x$fpl$dadd) refers to dretinf.o(x$fpl$dretinf) for __fpl_dretinf
    daddsub_clz.o(x$fpl$dadd) refers to dnaninf.o(x$fpl$dnaninf) for __fpl_dnaninf
    daddsub_clz.o(x$fpl$drsb) refers (Special) to usenofp.o(x$fpl$usenofp) for __I$use$fp
    daddsub_clz.o(x$fpl$drsb) refers to daddsub_clz.o(x$fpl$dadd) for _dadd1
    daddsub_clz.o(x$fpl$drsb) refers to daddsub_clz.o(x$fpl$dsub) for _dsub1
    daddsub_clz.o(x$fpl$dsub) refers (Special) to usenofp.o(x$fpl$usenofp) for __I$use$fp
    daddsub_clz.o(x$fpl$dsub) refers to daddsub_clz.o(x$fpl$dadd) for _dadd1
    daddsub_clz.o(x$fpl$dsub) refers to dnaninf.o(x$fpl$dnaninf) for __fpl_dnaninf
    dflt_clz.o(x$fpl$dfltu) refers (Special) to usenofp.o(x$fpl$usenofp) for __I$use$fp
    dflt_clz.o(x$fpl$dflt) refers (Special) to usenofp.o(x$fpl$usenofp) for __I$use$fp
    dflt_clz.o(x$fpl$dfltn) refers (Special) to usenofp.o(x$fpl$usenofp) for __I$use$fp
    dmul.o(x$fpl$dmul) refers (Special) to usenofp.o(x$fpl$usenofp) for __I$use$fp
    dmul.o(x$fpl$dmul) refers to dretinf.o(x$fpl$dretinf) for __fpl_dretinf
    dmul.o(x$fpl$dmul) refers to dnaninf.o(x$fpl$dnaninf) for __fpl_dnaninf
    f2d.o(x$fpl$f2d) refers (Special) to usenofp.o(x$fpl$usenofp) for __I$use$fp
    f2d.o(x$fpl$f2d) refers to fnaninf.o(x$fpl$fnaninf) for __fpl_fnaninf
    f2d.o(x$fpl$f2d) refers to dretinf.o(x$fpl$dretinf) for __fpl_dretinf
    faddsub_clz.o(x$fpl$fadd) refers (Special) to usenofp.o(x$fpl$usenofp) for __I$use$fp
    faddsub_clz.o(x$fpl$fadd) refers to faddsub_clz.o(x$fpl$fsub) for _fsub1
    faddsub_clz.o(x$fpl$fadd) refers to fretinf.o(x$fpl$fretinf) for __fpl_fretinf
    faddsub_clz.o(x$fpl$fadd) refers to fnaninf.o(x$fpl$fnaninf) for __fpl_fnaninf
    faddsub_clz.o(x$fpl$frsb) refers (Special) to usenofp.o(x$fpl$usenofp) for __I$use$fp
    faddsub_clz.o(x$fpl$frsb) refers to faddsub_clz.o(x$fpl$fadd) for _fadd1
    faddsub_clz.o(x$fpl$frsb) refers to faddsub_clz.o(x$fpl$fsub) for _fsub1
    faddsub_clz.o(x$fpl$fsub) refers (Special) to usenofp.o(x$fpl$usenofp) for __I$use$fp
    faddsub_clz.o(x$fpl$fsub) refers to faddsub_clz.o(x$fpl$fadd) for _fadd1
    faddsub_clz.o(x$fpl$fsub) refers to fnaninf.o(x$fpl$fnaninf) for __fpl_fnaninf
    fcmp.o(x$fpl$fcmp) refers (Special) to usenofp.o(x$fpl$usenofp) for __I$use$fp
    fcmp.o(x$fpl$fcmp) refers to feqf.o(x$fpl$feqf) for _fcmpeq
    fcmp.o(x$fpl$fcmp) refers to fgeqf.o(x$fpl$fgeqf) for _fcmpge
    fcmp.o(x$fpl$fcmp) refers to fleqf.o(x$fpl$fleqf) for _fcmple
    fdiv.o(x$fpl$frdiv) refers (Special) to usenofp.o(x$fpl$usenofp) for __I$use$fp
    fdiv.o(x$fpl$frdiv) refers to fdiv.o(x$fpl$fdiv) for _fdiv1
    fdiv.o(x$fpl$fdiv) refers (Special) to usenofp.o(x$fpl$usenofp) for __I$use$fp
    fdiv.o(x$fpl$fdiv) refers to fretinf.o(x$fpl$fretinf) for __fpl_fretinf
    fdiv.o(x$fpl$fdiv) refers to fnaninf.o(x$fpl$fnaninf) for __fpl_fnaninf
    ffix.o(x$fpl$ffix) refers (Special) to usenofp.o(x$fpl$usenofp) for __I$use$fp
    ffix.o(x$fpl$ffix) refers to fnaninf.o(x$fpl$fnaninf) for __fpl_fnaninf
    ffix.o(x$fpl$ffixr) refers (Special) to usenofp.o(x$fpl$usenofp) for __I$use$fp
    ffix.o(x$fpl$ffixr) refers to fnaninf.o(x$fpl$fnaninf) for __fpl_fnaninf
    fflt_clz.o(x$fpl$ffltu) refers (Special) to usenofp.o(x$fpl$usenofp) for __I$use$fp
    fflt_clz.o(x$fpl$fflt) refers (Special) to usenofp.o(x$fpl$usenofp) for __I$use$fp
    fflt_clz.o(x$fpl$ffltn) refers (Special) to usenofp.o(x$fpl$usenofp) for __I$use$fp
    fmul.o(x$fpl$fmul) refers (Special) to usenofp.o(x$fpl$usenofp) for __I$use$fp
    fmul.o(x$fpl$fmul) refers to fretinf.o(x$fpl$fretinf) for __fpl_fretinf
    fmul.o(x$fpl$fmul) refers to fnaninf.o(x$fpl$fnaninf) for __fpl_fnaninf
    __rtentry.o(.ARM.Collect$$rtentry$$00000000) refers (Special) to __rtentry2.o(.ARM.Collect$$rtentry$$0000000A) for __rt_entry_li
    __rtentry.o(.ARM.Collect$$rtentry$$00000000) refers (Special) to __rtentry2.o(.ARM.Collect$$rtentry$$0000000D) for __rt_entry_main
    __rtentry.o(.ARM.Collect$$rtentry$$00000000) refers (Special) to __rtentry2.o(.ARM.Collect$$rtentry$$0000000C) for __rt_entry_postli_1
    __rtentry.o(.ARM.Collect$$rtentry$$00000000) refers (Special) to __rtentry2.o(.ARM.Collect$$rtentry$$00000009) for __rt_entry_postsh_1
    __rtentry.o(.ARM.Collect$$rtentry$$00000000) refers (Special) to __rtentry2.o(.ARM.Collect$$rtentry$$00000002) for __rt_entry_presh_1
    __rtentry.o(.ARM.Collect$$rtentry$$00000000) refers (Special) to __rtentry4.o(.ARM.Collect$$rtentry$$00000004) for __rt_entry_sh
    dnaninf.o(x$fpl$dnaninf) refers (Special) to usenofp.o(x$fpl$usenofp) for __I$use$fp
    dretinf.o(x$fpl$dretinf) refers (Special) to usenofp.o(x$fpl$usenofp) for __I$use$fp
    feqf.o(x$fpl$feqf) refers (Special) to usenofp.o(x$fpl$usenofp) for __I$use$fp
    feqf.o(x$fpl$feqf) refers to fnaninf.o(x$fpl$fnaninf) for __fpl_fnaninf
    feqf.o(x$fpl$feqf) refers to fcmpi.o(x$fpl$fcmpinf) for __fpl_fcmp_Inf
    fgeqf.o(x$fpl$fgeqf) refers (Special) to usenofp.o(x$fpl$usenofp) for __I$use$fp
    fgeqf.o(x$fpl$fgeqf) refers to fnaninf.o(x$fpl$fnaninf) for __fpl_fnaninf
    fgeqf.o(x$fpl$fgeqf) refers to fcmpi.o(x$fpl$fcmpinf) for __fpl_fcmp_Inf
    fleqf.o(x$fpl$fleqf) refers (Special) to usenofp.o(x$fpl$usenofp) for __I$use$fp
    fleqf.o(x$fpl$fleqf) refers to fnaninf.o(x$fpl$fnaninf) for __fpl_fnaninf
    fleqf.o(x$fpl$fleqf) refers to fcmpi.o(x$fpl$fcmpinf) for __fpl_fcmp_Inf
    fnaninf.o(x$fpl$fnaninf) refers (Special) to usenofp.o(x$fpl$usenofp) for __I$use$fp
    fretinf.o(x$fpl$fretinf) refers (Special) to usenofp.o(x$fpl$usenofp) for __I$use$fp
    __rtentry2.o(.ARM.Collect$$rtentry$$00000008) refers to boardinit2.o(.text) for _platform_post_stackheap_init
    __rtentry2.o(.ARM.Collect$$rtentry$$0000000A) refers to libinit.o(.ARM.Collect$$libinit$$00000000) for __rt_lib_init
    __rtentry2.o(.ARM.Collect$$rtentry$$0000000B) refers to boardinit3.o(.text) for _platform_post_lib_init
    __rtentry2.o(.ARM.Collect$$rtentry$$0000000D) refers to main.o(.text) for main
    __rtentry2.o(.ARM.Collect$$rtentry$$0000000D) refers to exit.o(.text) for exit
    __rtentry2.o(.ARM.exidx) refers to __rtentry2.o(.ARM.Collect$$rtentry$$00000001) for .ARM.Collect$$rtentry$$00000001
    __rtentry2.o(.ARM.exidx) refers to __rtentry2.o(.ARM.Collect$$rtentry$$00000008) for .ARM.Collect$$rtentry$$00000008
    __rtentry2.o(.ARM.exidx) refers to __rtentry2.o(.ARM.Collect$$rtentry$$0000000A) for .ARM.Collect$$rtentry$$0000000A
    __rtentry2.o(.ARM.exidx) refers to __rtentry2.o(.ARM.Collect$$rtentry$$0000000B) for .ARM.Collect$$rtentry$$0000000B
    __rtentry2.o(.ARM.exidx) refers to __rtentry2.o(.ARM.Collect$$rtentry$$0000000D) for .ARM.Collect$$rtentry$$0000000D
    __rtentry4.o(.ARM.Collect$$rtentry$$00000004) refers to sys_stackheap_outer.o(.text) for __user_setup_stackheap
    __rtentry4.o(.ARM.exidx) refers to __rtentry4.o(.ARM.Collect$$rtentry$$00000004) for .ARM.Collect$$rtentry$$00000004
    fcmpi.o(x$fpl$fcmpinf) refers (Special) to usenofp.o(x$fpl$usenofp) for __I$use$fp
    sys_stackheap_outer.o(.text) refers to libspace.o(.text) for __user_perproc_libspace
    sys_stackheap_outer.o(.text) refers to startup_gd32f10x_hd.o(.text) for __user_initial_stackheap
    exit.o(.text) refers to rtexit.o(.ARM.Collect$$rtexit$$00000000) for __rt_exit
    libinit.o(.ARM.Collect$$libinit$$00000000) refers (Special) to libinit2.o(.ARM.Collect$$libinit$$00000030) for __rt_lib_init_alloca_1
    libinit.o(.ARM.Collect$$libinit$$00000000) refers (Special) to libinit2.o(.ARM.Collect$$libinit$$0000002E) for __rt_lib_init_argv_1
    libinit.o(.ARM.Collect$$libinit$$00000000) refers (Special) to libinit2.o(.ARM.Collect$$libinit$$0000001D) for __rt_lib_init_atexit_1
    libinit.o(.ARM.Collect$$libinit$$00000000) refers (Special) to libinit2.o(.ARM.Collect$$libinit$$00000023) for __rt_lib_init_clock_1
    libinit.o(.ARM.Collect$$libinit$$00000000) refers (Special) to libinit2.o(.ARM.Collect$$libinit$$00000034) for __rt_lib_init_cpp_1
    libinit.o(.ARM.Collect$$libinit$$00000000) refers (Special) to libinit2.o(.ARM.Collect$$libinit$$00000032) for __rt_lib_init_exceptions_1
    libinit.o(.ARM.Collect$$libinit$$00000000) refers (Special) to libinit2.o(.ARM.Collect$$libinit$$00000002) for __rt_lib_init_fp_1
    libinit.o(.ARM.Collect$$libinit$$00000000) refers (Special) to libinit2.o(.ARM.Collect$$libinit$$00000021) for __rt_lib_init_fp_trap_1
    libinit.o(.ARM.Collect$$libinit$$00000000) refers (Special) to libinit2.o(.ARM.Collect$$libinit$$00000025) for __rt_lib_init_getenv_1
    libinit.o(.ARM.Collect$$libinit$$00000000) refers (Special) to libinit2.o(.ARM.Collect$$libinit$$0000000C) for __rt_lib_init_heap_1
    libinit.o(.ARM.Collect$$libinit$$00000000) refers (Special) to libinit2.o(.ARM.Collect$$libinit$$00000013) for __rt_lib_init_lc_collate_1
    libinit.o(.ARM.Collect$$libinit$$00000000) refers (Special) to libinit2.o(.ARM.Collect$$libinit$$00000015) for __rt_lib_init_lc_ctype_1
    libinit.o(.ARM.Collect$$libinit$$00000000) refers (Special) to libinit2.o(.ARM.Collect$$libinit$$00000017) for __rt_lib_init_lc_monetary_1
    libinit.o(.ARM.Collect$$libinit$$00000000) refers (Special) to libinit2.o(.ARM.Collect$$libinit$$00000019) for __rt_lib_init_lc_numeric_1
    libinit.o(.ARM.Collect$$libinit$$00000000) refers (Special) to libinit2.o(.ARM.Collect$$libinit$$0000001B) for __rt_lib_init_lc_time_1
    libinit.o(.ARM.Collect$$libinit$$00000000) refers (Special) to libinit2.o(.ARM.Collect$$libinit$$00000006) for __rt_lib_init_preinit_1
    libinit.o(.ARM.Collect$$libinit$$00000000) refers (Special) to libinit2.o(.ARM.Collect$$libinit$$00000010) for __rt_lib_init_rand_1
    libinit.o(.ARM.Collect$$libinit$$00000000) refers (Special) to libinit2.o(.ARM.Collect$$libinit$$00000004) for __rt_lib_init_relocate_pie_1
    libinit.o(.ARM.Collect$$libinit$$00000000) refers (Special) to libinit2.o(.ARM.Collect$$libinit$$00000035) for __rt_lib_init_return
    libinit.o(.ARM.Collect$$libinit$$00000000) refers (Special) to libinit2.o(.ARM.Collect$$libinit$$0000001F) for __rt_lib_init_signal_1
    libinit.o(.ARM.Collect$$libinit$$00000000) refers (Special) to libinit2.o(.ARM.Collect$$libinit$$00000027) for __rt_lib_init_stdio_1
    libinit.o(.ARM.Collect$$libinit$$00000000) refers (Special) to libinit2.o(.ARM.Collect$$libinit$$0000000E) for __rt_lib_init_user_alloc_1
    libspace.o(.text) refers to libspace.o(.bss) for __libspace_start
    rtexit.o(.ARM.Collect$$rtexit$$00000000) refers (Special) to rtexit2.o(.ARM.Collect$$rtexit$$00000004) for __rt_exit_exit
    rtexit.o(.ARM.Collect$$rtexit$$00000000) refers (Special) to rtexit2.o(.ARM.Collect$$rtexit$$00000003) for __rt_exit_ls
    rtexit.o(.ARM.Collect$$rtexit$$00000000) refers (Special) to rtexit2.o(.ARM.Collect$$rtexit$$00000002) for __rt_exit_prels_1
    rtexit.o(.ARM.exidx) refers (Special) to rtexit2.o(.ARM.Collect$$rtexit$$00000004) for __rt_exit_exit
    rtexit.o(.ARM.exidx) refers (Special) to rtexit2.o(.ARM.Collect$$rtexit$$00000003) for __rt_exit_ls
    rtexit.o(.ARM.exidx) refers (Special) to rtexit2.o(.ARM.Collect$$rtexit$$00000002) for __rt_exit_prels_1
    rtexit.o(.ARM.exidx) refers to rtexit.o(.ARM.Collect$$rtexit$$00000000) for .ARM.Collect$$rtexit$$00000000
    libinit2.o(.ARM.Collect$$libinit$$00000012) refers to libinit2.o(.ARM.Collect$$libinit$$00000011) for .ARM.Collect$$libinit$$00000011
    libinit2.o(.ARM.Collect$$libinit$$00000014) refers to libinit2.o(.ARM.Collect$$libinit$$00000011) for .ARM.Collect$$libinit$$00000011
    libinit2.o(.ARM.Collect$$libinit$$00000016) refers to libinit2.o(.ARM.Collect$$libinit$$00000011) for .ARM.Collect$$libinit$$00000011
    libinit2.o(.ARM.Collect$$libinit$$00000018) refers to libinit2.o(.ARM.Collect$$libinit$$00000011) for .ARM.Collect$$libinit$$00000011
    libinit2.o(.ARM.Collect$$libinit$$0000001A) refers to libinit2.o(.ARM.Collect$$libinit$$00000011) for .ARM.Collect$$libinit$$00000011
    libinit2.o(.ARM.Collect$$libinit$$00000028) refers to argv_veneer.o(.emb_text) for __ARM_argv_veneer
    libinit2.o(.ARM.Collect$$libinit$$00000029) refers to argv_veneer.o(.emb_text) for __ARM_argv_veneer
    rtexit2.o(.ARM.Collect$$rtexit$$00000003) refers to libshutdown.o(.ARM.Collect$$libshutdown$$00000000) for __rt_lib_shutdown
    rtexit2.o(.ARM.Collect$$rtexit$$00000004) refers to sys_exit.o(.text) for _sys_exit
    rtexit2.o(.ARM.exidx) refers to rtexit2.o(.ARM.Collect$$rtexit$$00000001) for .ARM.Collect$$rtexit$$00000001
    rtexit2.o(.ARM.exidx) refers to rtexit2.o(.ARM.Collect$$rtexit$$00000003) for .ARM.Collect$$rtexit$$00000003
    rtexit2.o(.ARM.exidx) refers to rtexit2.o(.ARM.Collect$$rtexit$$00000004) for .ARM.Collect$$rtexit$$00000004
    argv_veneer.o(.emb_text) refers to no_argv.o(.text) for __ARM_get_argv
    sys_exit.o(.text) refers (Special) to use_no_semi.o(.text) for __I$use$semihosting
    sys_exit.o(.text) refers (Special) to indicate_semi.o(.text) for __semihosting_library_function
    sys_exit_hlt.o(.text) refers (Special) to use_no_semi.o(.text) for __I$use$semihosting
    sys_exit_hlt.o(.text) refers (Special) to indicate_semi.o(.text) for __semihosting_library_function
    _get_argv_nomalloc.o(.text) refers (Special) to hrguard.o(.text) for __heap_region$guard
    _get_argv_nomalloc.o(.text) refers to defsig_rtmem_outer.o(.text) for __rt_SIGRTMEM
    _get_argv_nomalloc.o(.text) refers to sys_command.o(.text) for _sys_command_string
    libshutdown.o(.ARM.Collect$$libshutdown$$00000000) refers (Special) to libshutdown2.o(.ARM.Collect$$libshutdown$$00000002) for __rt_lib_shutdown_cpp_1
    libshutdown.o(.ARM.Collect$$libshutdown$$00000000) refers (Special) to libshutdown2.o(.ARM.Collect$$libshutdown$$00000007) for __rt_lib_shutdown_fp_trap_1
    libshutdown.o(.ARM.Collect$$libshutdown$$00000000) refers (Special) to libshutdown2.o(.ARM.Collect$$libshutdown$$0000000F) for __rt_lib_shutdown_heap_1
    libshutdown.o(.ARM.Collect$$libshutdown$$00000000) refers (Special) to libshutdown2.o(.ARM.Collect$$libshutdown$$00000010) for __rt_lib_shutdown_return
    libshutdown.o(.ARM.Collect$$libshutdown$$00000000) refers (Special) to libshutdown2.o(.ARM.Collect$$libshutdown$$0000000A) for __rt_lib_shutdown_signal_1
    libshutdown.o(.ARM.Collect$$libshutdown$$00000000) refers (Special) to libshutdown2.o(.ARM.Collect$$libshutdown$$00000004) for __rt_lib_shutdown_stdio_1
    libshutdown.o(.ARM.Collect$$libshutdown$$00000000) refers (Special) to libshutdown2.o(.ARM.Collect$$libshutdown$$0000000C) for __rt_lib_shutdown_user_alloc_1
    sys_command.o(.text) refers (Special) to use_no_semi.o(.text) for __I$use$semihosting
    sys_command.o(.text) refers (Special) to indicate_semi.o(.text) for __semihosting_library_function
    sys_command_hlt.o(.text) refers (Special) to use_no_semi.o(.text) for __I$use$semihosting
    sys_command_hlt.o(.text) refers (Special) to indicate_semi.o(.text) for __semihosting_library_function
    defsig_rtmem_outer.o(.text) refers to defsig_rtmem_inner.o(.text) for __rt_SIGRTMEM_inner
    defsig_rtmem_outer.o(.text) refers to defsig_exit.o(.text) for __sig_exit
    defsig_rtmem_formal.o(.text) refers to rt_raise.o(.text) for __rt_raise
    rt_raise.o(.text) refers to __raise.o(.text) for __raise
    rt_raise.o(.text) refers to sys_exit.o(.text) for _sys_exit
    defsig_exit.o(.text) refers to sys_exit.o(.text) for _sys_exit
    defsig_rtmem_inner.o(.text) refers to defsig_general.o(.text) for __default_signal_display
    __raise.o(.text) refers to defsig.o(CL$$defsig) for __default_signal_handler
    defsig_general.o(.text) refers to sys_wrch.o(.text) for _ttywrch
    sys_wrch.o(.text) refers (Special) to use_no_semi.o(.text) for __I$use$semihosting
    sys_wrch.o(.text) refers (Special) to indicate_semi.o(.text) for __semihosting_library_function
    sys_wrch_hlt.o(.text) refers (Special) to use_no_semi.o(.text) for __I$use$semihosting
    sys_wrch_hlt.o(.text) refers (Special) to indicate_semi.o(.text) for __semihosting_library_function
    defsig.o(CL$$defsig) refers to defsig_rtmem_inner.o(.text) for __rt_SIGRTMEM_inner
    defsig_abrt_inner.o(.text) refers to defsig_general.o(.text) for __default_signal_display
    defsig_fpe_inner.o(.text) refers to defsig_general.o(.text) for __default_signal_display
    defsig_rtred_inner.o(.text) refers to defsig_general.o(.text) for __default_signal_display
    defsig_stak_inner.o(.text) refers to defsig_general.o(.text) for __default_signal_display
    defsig_pvfn_inner.o(.text) refers to defsig_general.o(.text) for __default_signal_display
    defsig_cppl_inner.o(.text) refers to defsig_general.o(.text) for __default_signal_display
    defsig_segv_inner.o(.text) refers to defsig_general.o(.text) for __default_signal_display
    defsig_other.o(.text) refers to defsig_general.o(.text) for __default_signal_display


==============================================================================

Removing Unused input sections from the image.

    Removing main.o(.ARM.exidx), (32 bytes).
    Removing main.o(.bss.activateWeakening), (1 bytes).
    Removing main.o(.bss.slaveError), (1 bytes).
    Removing main.o(.ARM.use_no_argv), (4 bytes).
    Removing bldc.o(.ARM.exidx), (24 bytes).
    Removing bldc.o(.rodata.pwm_res), (2 bytes).
    Removing setup.o(.ARM.exidx), (72 bytes).
    Removing it.o(.ARM.exidx), (136 bytes).
    Removing comms.o(.ARM.exidx), (16 bytes).
    Removing commsbluetooth.o(.text), (0 bytes).
    Removing commssteering.o(.ARM.exidx), (24 bytes).
    Removing commsmasterslave.o(.ARM.exidx), (24 bytes).
    Removing led.o(.text), (0 bytes).
    Removing gd32f10x_adc.o(.ARM.exidx), (272 bytes).
    Removing gd32f10x_dbg.o(.text), (148 bytes).
    Removing gd32f10x_dbg.o(.ARM.exidx), (64 bytes).
    Removing gd32f10x_dma.o(.ARM.exidx), (216 bytes).
    Removing gd32f10x_fwdgt.o(.ARM.exidx), (48 bytes).
    Removing gd32f10x_gpio.o(.ARM.exidx), (136 bytes).
    Removing gd32f10x_i2c.o(.text), (802 bytes).
    Removing gd32f10x_i2c.o(.ARM.exidx), (240 bytes).
    Removing gd32f10x_misc.o(.ARM.exidx), (56 bytes).
    Removing gd32f10x_pmu.o(.text), (362 bytes).
    Removing gd32f10x_pmu.o(.ARM.exidx), (96 bytes).
    Removing gd32f10x_rcu.o(.ARM.exidx), (288 bytes).
    Removing gd32f10x_timer.o(.ARM.exidx), (552 bytes).
    Removing gd32f10x_usart.o(.ARM.exidx), (344 bytes).
    Removing gd32f10x_wwdgt.o(.text), (170 bytes).
    Removing gd32f10x_wwdgt.o(.ARM.exidx), (56 bytes).
    Removing system_gd32f10x.o(.ARM.exidx), (16 bytes).

30 unused section(s) (total 4202 bytes) removed from the image.

==============================================================================

Image Symbol Table

    Local Symbols

    Symbol Name                              Value     Ov Type        Size  Object(Section)

    ../clib/angel/boardlib.s                 0x00000000   Number         0  boardinit1.o ABSOLUTE
    ../clib/angel/boardlib.s                 0x00000000   Number         0  boardinit2.o ABSOLUTE
    ../clib/angel/boardlib.s                 0x00000000   Number         0  boardinit3.o ABSOLUTE
    ../clib/angel/boardlib.s                 0x00000000   Number         0  boardshut.o ABSOLUTE
    ../clib/angel/handlers.s                 0x00000000   Number         0  __scatter_copy.o ABSOLUTE
    ../clib/angel/handlers.s                 0x00000000   Number         0  __scatter_zi.o ABSOLUTE
    ../clib/angel/kernel.s                   0x00000000   Number         0  __rtentry.o ABSOLUTE
    ../clib/angel/kernel.s                   0x00000000   Number         0  __rtentry2.o ABSOLUTE
    ../clib/angel/kernel.s                   0x00000000   Number         0  __rtentry4.o ABSOLUTE
    ../clib/angel/kernel.s                   0x00000000   Number         0  rtexit.o ABSOLUTE
    ../clib/angel/kernel.s                   0x00000000   Number         0  rtexit2.o ABSOLUTE
    ../clib/angel/rt.s                       0x00000000   Number         0  rt_raise.o ABSOLUTE
    ../clib/angel/scatter.s                  0x00000000   Number         0  __scatter.o ABSOLUTE
    ../clib/angel/startup.s                  0x00000000   Number         0  __main.o ABSOLUTE
    ../clib/angel/sys.s                      0x00000000   Number         0  sys_stackheap_outer.o ABSOLUTE
    ../clib/angel/sys.s                      0x00000000   Number         0  libspace.o ABSOLUTE
    ../clib/angel/sys.s                      0x00000000   Number         0  use_no_semi.o ABSOLUTE
    ../clib/angel/sys.s                      0x00000000   Number         0  indicate_semi.o ABSOLUTE
    ../clib/angel/sysapp.c                   0x00000000   Number         0  sys_exit.o ABSOLUTE
    ../clib/angel/sysapp.c                   0x00000000   Number         0  sys_exit_hlt.o ABSOLUTE
    ../clib/angel/sysapp.c                   0x00000000   Number         0  sys_command.o ABSOLUTE
    ../clib/angel/sysapp.c                   0x00000000   Number         0  sys_command_hlt.o ABSOLUTE
    ../clib/angel/sysapp.c                   0x00000000   Number         0  sys_wrch.o ABSOLUTE
    ../clib/angel/sysapp.c                   0x00000000   Number         0  sys_wrch_hlt.o ABSOLUTE
    ../clib/armsys.c                         0x00000000   Number         0  argv_veneer.o ABSOLUTE
    ../clib/armsys.c                         0x00000000   Number         0  argv_veneer.o ABSOLUTE
    ../clib/armsys.c                         0x00000000   Number         0  _get_argv_nomalloc.o ABSOLUTE
    ../clib/armsys.c                         0x00000000   Number         0  no_argv.o ABSOLUTE
    ../clib/heapalloc.c                      0x00000000   Number         0  hrguard.o ABSOLUTE
    ../clib/heapaux.c                        0x00000000   Number         0  heapauxi.o ABSOLUTE
    ../clib/libinit.s                        0x00000000   Number         0  libinit.o ABSOLUTE
    ../clib/libinit.s                        0x00000000   Number         0  libinit2.o ABSOLUTE
    ../clib/libinit.s                        0x00000000   Number         0  libshutdown.o ABSOLUTE
    ../clib/libinit.s                        0x00000000   Number         0  libshutdown2.o ABSOLUTE
    ../clib/signal.c                         0x00000000   Number         0  defsig_rtmem_outer.o ABSOLUTE
    ../clib/signal.c                         0x00000000   Number         0  defsig_rtmem_formal.o ABSOLUTE
    ../clib/signal.c                         0x00000000   Number         0  defsig_exit.o ABSOLUTE
    ../clib/signal.c                         0x00000000   Number         0  defsig_rtmem_inner.o ABSOLUTE
    ../clib/signal.c                         0x00000000   Number         0  __raise.o ABSOLUTE
    ../clib/signal.c                         0x00000000   Number         0  defsig_general.o ABSOLUTE
    ../clib/signal.c                         0x00000000   Number         0  defsig_abrt_inner.o ABSOLUTE
    ../clib/signal.c                         0x00000000   Number         0  defsig_fpe_inner.o ABSOLUTE
    ../clib/signal.c                         0x00000000   Number         0  defsig_rtred_inner.o ABSOLUTE
    ../clib/signal.c                         0x00000000   Number         0  defsig_stak_inner.o ABSOLUTE
    ../clib/signal.c                         0x00000000   Number         0  defsig_pvfn_inner.o ABSOLUTE
    ../clib/signal.c                         0x00000000   Number         0  defsig_cppl_inner.o ABSOLUTE
    ../clib/signal.c                         0x00000000   Number         0  defsig_segv_inner.o ABSOLUTE
    ../clib/signal.c                         0x00000000   Number         0  defsig_other.o ABSOLUTE
    ../clib/signal.s                         0x00000000   Number         0  defsig.o ABSOLUTE
    ../clib/stdlib.c                         0x00000000   Number         0  exit.o ABSOLUTE
    ../fplib/d2f.s                           0x00000000   Number         0  d2f.o ABSOLUTE
    ../fplib/daddsub.s                       0x00000000   Number         0  daddsub_clz.o ABSOLUTE
    ../fplib/dflt.s                          0x00000000   Number         0  dflt_clz.o ABSOLUTE
    ../fplib/dmul.s                          0x00000000   Number         0  dmul.o ABSOLUTE
    ../fplib/dnaninf.s                       0x00000000   Number         0  dnaninf.o ABSOLUTE
    ../fplib/dretinf.s                       0x00000000   Number         0  dretinf.o ABSOLUTE
    ../fplib/f2d.s                           0x00000000   Number         0  f2d.o ABSOLUTE
    ../fplib/faddsub.s                       0x00000000   Number         0  faddsub_clz.o ABSOLUTE
    ../fplib/fcmp.s                          0x00000000   Number         0  fcmp.o ABSOLUTE
    ../fplib/fcmpi.s                         0x00000000   Number         0  fcmpi.o ABSOLUTE
    ../fplib/fdiv.s                          0x00000000   Number         0  fdiv.o ABSOLUTE
    ../fplib/feqf.s                          0x00000000   Number         0  feqf.o ABSOLUTE
    ../fplib/ffix.s                          0x00000000   Number         0  ffix.o ABSOLUTE
    ../fplib/fflt.s                          0x00000000   Number         0  fflt_clz.o ABSOLUTE
    ../fplib/fgeqf.s                         0x00000000   Number         0  fgeqf.o ABSOLUTE
    ../fplib/fleqf.s                         0x00000000   Number         0  fleqf.o ABSOLUTE
    ../fplib/fmul.s                          0x00000000   Number         0  fmul.o ABSOLUTE
    ../fplib/fnaninf.s                       0x00000000   Number         0  fnaninf.o ABSOLUTE
    ../fplib/fpinit.s                        0x00000000   Number         0  fpinit.o ABSOLUTE
    ../fplib/fpinit_empty.s                  0x00000000   Number         0  fpinit_empty.o ABSOLUTE
    ../fplib/fretinf.s                       0x00000000   Number         0  fretinf.o ABSOLUTE
    ../fplib/usenofp.s                       0x00000000   Number         0  usenofp.o ABSOLUTE
    RTE/Device/GD32F103C8/startup_gd32f10x_hd.s 0x00000000   Number         0  startup_gd32f10x_hd.o ABSOLUTE
    bldc.c                                   0x00000000   Number         0  bldc.o ABSOLUTE
    comms.c                                  0x00000000   Number         0  comms.o ABSOLUTE
    commsBluetooth.c                         0x00000000   Number         0  commsbluetooth.o ABSOLUTE
    commsMasterSlave.c                       0x00000000   Number         0  commsmasterslave.o ABSOLUTE
    commsSteering.c                          0x00000000   Number         0  commssteering.o ABSOLUTE
    dc.s                                     0x00000000   Number         0  dc.o ABSOLUTE
    gd32f10x_adc.c                           0x00000000   Number         0  gd32f10x_adc.o ABSOLUTE
    gd32f10x_dbg.c                           0x00000000   Number         0  gd32f10x_dbg.o ABSOLUTE
    gd32f10x_dma.c                           0x00000000   Number         0  gd32f10x_dma.o ABSOLUTE
    gd32f10x_fwdgt.c                         0x00000000   Number         0  gd32f10x_fwdgt.o ABSOLUTE
    gd32f10x_gpio.c                          0x00000000   Number         0  gd32f10x_gpio.o ABSOLUTE
    gd32f10x_i2c.c                           0x00000000   Number         0  gd32f10x_i2c.o ABSOLUTE
    gd32f10x_misc.c                          0x00000000   Number         0  gd32f10x_misc.o ABSOLUTE
    gd32f10x_pmu.c                           0x00000000   Number         0  gd32f10x_pmu.o ABSOLUTE
    gd32f10x_rcu.c                           0x00000000   Number         0  gd32f10x_rcu.o ABSOLUTE
    gd32f10x_timer.c                         0x00000000   Number         0  gd32f10x_timer.o ABSOLUTE
    gd32f10x_usart.c                         0x00000000   Number         0  gd32f10x_usart.o ABSOLUTE
    gd32f10x_wwdgt.c                         0x00000000   Number         0  gd32f10x_wwdgt.o ABSOLUTE
    it.c                                     0x00000000   Number         0  it.o ABSOLUTE
    led.c                                    0x00000000   Number         0  led.o ABSOLUTE
    main.c                                   0x00000000   Number         0  main.o ABSOLUTE
    setup.c                                  0x00000000   Number         0  setup.o ABSOLUTE
    system_gd32f10x.c                        0x00000000   Number         0  system_gd32f10x.o ABSOLUTE
    RESET                                    0x08000000   Section      304  startup_gd32f10x_hd.o(RESET)
    !!!main                                  0x08000130   Section        8  __main.o(!!!main)
    !!!scatter                               0x08000138   Section       52  __scatter.o(!!!scatter)
    !!handler_copy                           0x0800016c   Section       26  __scatter_copy.o(!!handler_copy)
    !!handler_zi                             0x08000188   Section       28  __scatter_zi.o(!!handler_zi)
    .ARM.Collect$$libinit$$00000000          0x080001a4   Section        2  libinit.o(.ARM.Collect$$libinit$$00000000)
    .ARM.Collect$$libinit$$00000002          0x080001a6   Section        0  libinit2.o(.ARM.Collect$$libinit$$00000002)
    .ARM.Collect$$libinit$$00000004          0x080001a6   Section        0  libinit2.o(.ARM.Collect$$libinit$$00000004)
    .ARM.Collect$$libinit$$00000006          0x080001a6   Section        0  libinit2.o(.ARM.Collect$$libinit$$00000006)
    .ARM.Collect$$libinit$$0000000C          0x080001a6   Section        0  libinit2.o(.ARM.Collect$$libinit$$0000000C)
    .ARM.Collect$$libinit$$0000000E          0x080001a6   Section        0  libinit2.o(.ARM.Collect$$libinit$$0000000E)
    .ARM.Collect$$libinit$$00000010          0x080001a6   Section        0  libinit2.o(.ARM.Collect$$libinit$$00000010)
    .ARM.Collect$$libinit$$00000013          0x080001a6   Section        0  libinit2.o(.ARM.Collect$$libinit$$00000013)
    .ARM.Collect$$libinit$$00000015          0x080001a6   Section        0  libinit2.o(.ARM.Collect$$libinit$$00000015)
    .ARM.Collect$$libinit$$00000017          0x080001a6   Section        0  libinit2.o(.ARM.Collect$$libinit$$00000017)
    .ARM.Collect$$libinit$$00000019          0x080001a6   Section        0  libinit2.o(.ARM.Collect$$libinit$$00000019)
    .ARM.Collect$$libinit$$0000001B          0x080001a6   Section        0  libinit2.o(.ARM.Collect$$libinit$$0000001B)
    .ARM.Collect$$libinit$$0000001D          0x080001a6   Section        0  libinit2.o(.ARM.Collect$$libinit$$0000001D)
    .ARM.Collect$$libinit$$0000001F          0x080001a6   Section        0  libinit2.o(.ARM.Collect$$libinit$$0000001F)
    .ARM.Collect$$libinit$$00000021          0x080001a6   Section        0  libinit2.o(.ARM.Collect$$libinit$$00000021)
    .ARM.Collect$$libinit$$00000023          0x080001a6   Section        0  libinit2.o(.ARM.Collect$$libinit$$00000023)
    .ARM.Collect$$libinit$$00000025          0x080001a6   Section        0  libinit2.o(.ARM.Collect$$libinit$$00000025)
    .ARM.Collect$$libinit$$00000027          0x080001a6   Section        0  libinit2.o(.ARM.Collect$$libinit$$00000027)
    .ARM.Collect$$libinit$$0000002E          0x080001a6   Section        0  libinit2.o(.ARM.Collect$$libinit$$0000002E)
    .ARM.Collect$$libinit$$00000030          0x080001a6   Section        0  libinit2.o(.ARM.Collect$$libinit$$00000030)
    .ARM.Collect$$libinit$$00000032          0x080001a6   Section        0  libinit2.o(.ARM.Collect$$libinit$$00000032)
    .ARM.Collect$$libinit$$00000034          0x080001a6   Section        0  libinit2.o(.ARM.Collect$$libinit$$00000034)
    .ARM.Collect$$libinit$$00000035          0x080001a6   Section        2  libinit2.o(.ARM.Collect$$libinit$$00000035)
    .ARM.Collect$$libshutdown$$00000000      0x080001a8   Section        2  libshutdown.o(.ARM.Collect$$libshutdown$$00000000)
    .ARM.Collect$$libshutdown$$00000002      0x080001aa   Section        0  libshutdown2.o(.ARM.Collect$$libshutdown$$00000002)
    .ARM.Collect$$libshutdown$$00000004      0x080001aa   Section        0  libshutdown2.o(.ARM.Collect$$libshutdown$$00000004)
    .ARM.Collect$$libshutdown$$00000007      0x080001aa   Section        0  libshutdown2.o(.ARM.Collect$$libshutdown$$00000007)
    .ARM.Collect$$libshutdown$$0000000A      0x080001aa   Section        0  libshutdown2.o(.ARM.Collect$$libshutdown$$0000000A)
    .ARM.Collect$$libshutdown$$0000000C      0x080001aa   Section        0  libshutdown2.o(.ARM.Collect$$libshutdown$$0000000C)
    .ARM.Collect$$libshutdown$$0000000F      0x080001aa   Section        0  libshutdown2.o(.ARM.Collect$$libshutdown$$0000000F)
    .ARM.Collect$$libshutdown$$00000010      0x080001aa   Section        2  libshutdown2.o(.ARM.Collect$$libshutdown$$00000010)
    .ARM.Collect$$rtentry$$00000000          0x080001ac   Section        0  __rtentry.o(.ARM.Collect$$rtentry$$00000000)
    .ARM.Collect$$rtentry$$00000002          0x080001ac   Section        0  __rtentry2.o(.ARM.Collect$$rtentry$$00000002)
    .ARM.Collect$$rtentry$$00000004          0x080001ac   Section        6  __rtentry4.o(.ARM.Collect$$rtentry$$00000004)
    .ARM.Collect$$rtentry$$00000009          0x080001b2   Section        0  __rtentry2.o(.ARM.Collect$$rtentry$$00000009)
    .ARM.Collect$$rtentry$$0000000A          0x080001b2   Section        4  __rtentry2.o(.ARM.Collect$$rtentry$$0000000A)
    .ARM.Collect$$rtentry$$0000000C          0x080001b6   Section        0  __rtentry2.o(.ARM.Collect$$rtentry$$0000000C)
    .ARM.Collect$$rtentry$$0000000D          0x080001b6   Section        8  __rtentry2.o(.ARM.Collect$$rtentry$$0000000D)
    .ARM.Collect$$rtexit$$00000000           0x080001be   Section        2  rtexit.o(.ARM.Collect$$rtexit$$00000000)
    .ARM.Collect$$rtexit$$00000002           0x080001c0   Section        0  rtexit2.o(.ARM.Collect$$rtexit$$00000002)
    .ARM.Collect$$rtexit$$00000003           0x080001c0   Section        4  rtexit2.o(.ARM.Collect$$rtexit$$00000003)
    .ARM.Collect$$rtexit$$00000004           0x080001c4   Section        6  rtexit2.o(.ARM.Collect$$rtexit$$00000004)
    [Anonymous Symbol]                       0x080001cc   Section        0  main.o(.text)
    [Anonymous Symbol]                       0x08000528   Section        0  bldc.o(.text)
    [Anonymous Symbol]                       0x080008a0   Section        0  setup.o(.text)
    [Anonymous Symbol]                       0x08000f78   Section        0  it.o(.text)
    [Anonymous Symbol]                       0x08001104   Section        0  comms.o(.text)
    [Anonymous Symbol]                       0x080012a0   Section        0  commssteering.o(.text)
    [Anonymous Symbol]                       0x080013c4   Section        0  commsmasterslave.o(.text)
    [Anonymous Symbol]                       0x08001514   Section        0  gd32f10x_adc.o(.text)
    [Anonymous Symbol]                       0x080019fc   Section        0  gd32f10x_dma.o(.text)
    [Anonymous Symbol]                       0x08001e00   Section        0  gd32f10x_fwdgt.o(.text)
    [Anonymous Symbol]                       0x08001f18   Section        0  gd32f10x_gpio.o(.text)
    [Anonymous Symbol]                       0x08002394   Section        0  gd32f10x_misc.o(.text)
    [Anonymous Symbol]                       0x08002480   Section        0  gd32f10x_rcu.o(.text)
    [Anonymous Symbol]                       0x08002a80   Section        0  gd32f10x_timer.o(.text)
    [Anonymous Symbol]                       0x080037f4   Section        0  gd32f10x_usart.o(.text)
    .text                                    0x08003b58   Section       64  startup_gd32f10x_hd.o(.text)
    [Anonymous Symbol]                       0x08003b98   Section        0  system_gd32f10x.o(.text)
    .text                                    0x08003d1a   Section        0  heapauxi.o(.text)
    .text                                    0x08003d20   Section       74  sys_stackheap_outer.o(.text)
    .text                                    0x08003d6a   Section        0  exit.o(.text)
    .text                                    0x08003d7c   Section        8  libspace.o(.text)
    .text                                    0x08003d84   Section        0  sys_exit.o(.text)
    .text                                    0x08003d90   Section        2  use_no_semi.o(.text)
    .text                                    0x08003d92   Section        0  indicate_semi.o(.text)
    x$fpl$d2f                                0x08003d94   Section       98  d2f.o(x$fpl$d2f)
    x$fpl$dadd                               0x08003df8   Section      336  daddsub_clz.o(x$fpl$dadd)
    _dadd1                                   0x08003e09   Thumb Code     0  daddsub_clz.o(x$fpl$dadd)
    x$fpl$dflt                               0x08003f48   Section       46  dflt_clz.o(x$fpl$dflt)
    x$fpl$dfltu                              0x08003f76   Section       38  dflt_clz.o(x$fpl$dfltu)
    x$fpl$dmul                               0x08003f9c   Section      340  dmul.o(x$fpl$dmul)
    x$fpl$dnaninf                            0x080040f0   Section      156  dnaninf.o(x$fpl$dnaninf)
    x$fpl$dretinf                            0x0800418c   Section       12  dretinf.o(x$fpl$dretinf)
    x$fpl$dsub                               0x08004198   Section      476  daddsub_clz.o(x$fpl$dsub)
    _dsub1                                   0x080041a9   Thumb Code     0  daddsub_clz.o(x$fpl$dsub)
    x$fpl$f2d                                0x08004374   Section       86  f2d.o(x$fpl$f2d)
    x$fpl$fadd                               0x080043cc   Section      196  faddsub_clz.o(x$fpl$fadd)
    _fadd1                                   0x080043db   Thumb Code     0  faddsub_clz.o(x$fpl$fadd)
    x$fpl$fcmp                               0x08004490   Section       84  fcmp.o(x$fpl$fcmp)
    x$fpl$fcmpinf                            0x080044e4   Section       24  fcmpi.o(x$fpl$fcmpinf)
    _fdiv1                                   0x080044fd   Thumb Code     0  fdiv.o(x$fpl$fdiv)
    x$fpl$fdiv                               0x080044fc   Section      388  fdiv.o(x$fpl$fdiv)
    x$fpl$feqf                               0x08004680   Section      104  feqf.o(x$fpl$feqf)
    x$fpl$ffix                               0x080046e8   Section       54  ffix.o(x$fpl$ffix)
    x$fpl$fflt                               0x08004720   Section       48  fflt_clz.o(x$fpl$fflt)
    x$fpl$ffltu                              0x08004750   Section       38  fflt_clz.o(x$fpl$ffltu)
    x$fpl$fgeqf                              0x08004778   Section      104  fgeqf.o(x$fpl$fgeqf)
    x$fpl$fleqf                              0x080047e0   Section      104  fleqf.o(x$fpl$fleqf)
    x$fpl$fmul                               0x08004848   Section      258  fmul.o(x$fpl$fmul)
    x$fpl$fnaninf                            0x0800494a   Section      140  fnaninf.o(x$fpl$fnaninf)
    x$fpl$fretinf                            0x080049d6   Section       10  fretinf.o(x$fpl$fretinf)
    x$fpl$fsub                               0x080049e0   Section      234  faddsub_clz.o(x$fpl$fsub)
    _fsub1                                   0x080049ef   Thumb Code     0  faddsub_clz.o(x$fpl$fsub)
    .L__const.rcu_clock_freq_get.apb2_exp    0x08004aca   Data           8  gd32f10x_rcu.o(.rodata.cst8)
    x$fpl$usenofp                            0x08004aca   Section        0  usenofp.o(x$fpl$usenofp)
    .bss                                     0x20000010   Section       96  libspace.o(.bss)
    sMasterSlaveRecord                       0x200000d8   Data           1  commsmasterslave.o(.bss.sMasterSlaveRecord)
    [Anonymous Symbol]                       0x200000d8   Section        0  commsmasterslave.o(.bss.sMasterSlaveRecord)
    sSteerRecord                             0x200000d9   Data           1  commssteering.o(.bss.sSteerRecord)
    [Anonymous Symbol]                       0x200000d9   Section        0  commssteering.o(.bss.sSteerRecord)
    sUSARTMasterSlaveRecordBuffer            0x200000da   Data           5  commsmasterslave.o(.bss.sUSARTMasterSlaveRecordBuffer)
    [Anonymous Symbol]                       0x200000da   Section        0  commsmasterslave.o(.bss.sUSARTMasterSlaveRecordBuffer)
    sUSARTMasterSlaveRecordBufferCounter     0x200000df   Data           1  commsmasterslave.o(.bss.sUSARTMasterSlaveRecordBufferCounter)
    [Anonymous Symbol]                       0x200000df   Section        0  commsmasterslave.o(.bss.sUSARTMasterSlaveRecordBufferCounter)
    sUSARTSteerRecordBuffer                  0x200000e0   Data           8  commssteering.o(.bss.sUSARTSteerRecordBuffer)
    [Anonymous Symbol]                       0x200000e0   Section        0  commssteering.o(.bss.sUSARTSteerRecordBuffer)
    sUSARTSteerRecordBufferCounter           0x200000e8   Data           1  commssteering.o(.bss.sUSARTSteerRecordBufferCounter)
    [Anonymous Symbol]                       0x200000e8   Section        0  commssteering.o(.bss.sUSARTSteerRecordBufferCounter)
    Heap_Mem                                 0x20000140   Data        8192  startup_gd32f10x_hd.o(HEAP)
    HEAP                                     0x20000140   Section     8192  startup_gd32f10x_hd.o(HEAP)
    Stack_Mem                                0x20002140   Data        8192  startup_gd32f10x_hd.o(STACK)
    STACK                                    0x20002140   Section     8192  startup_gd32f10x_hd.o(STACK)
    __initial_sp                             0x20004140   Data           0  startup_gd32f10x_hd.o(STACK)

    Global Symbols

    Symbol Name                              Value     Ov Type        Size  Object(Section)

    BuildAttributes$$THM_ISAv4$P$D$K$B$S$PE$A:L22UL41UL21$X:L11$S22US41US21$IEEE1$IW$~IW$USESV6$~STKCKD$USESV7$~SHL$OTIME$ROPI$EBA8$UX$STANDARDLIB$REQ8$PRES8$EABIv2 0x00000000   Number         0  anon$$obj.o ABSOLUTE
    __fp_init_empty                          0x00000000   Number         0  fpinit_empty.o ABSOLUTE
    __ARM_exceptions_init                     - Undefined Weak Reference
    __alloca_initialize                       - Undefined Weak Reference
    __arm_preinit_                            - Undefined Weak Reference
    __arm_relocate_pie_                       - Undefined Weak Reference
    __cpp_initialize__aeabi_                  - Undefined Weak Reference
    __cxa_finalize                            - Undefined Weak Reference
    __rt_locale                               - Undefined Weak Reference
    __sigvec_lookup                           - Undefined Weak Reference
    _atexit_init                              - Undefined Weak Reference
    _call_atexit_fns                          - Undefined Weak Reference
    _clock_init                               - Undefined Weak Reference
    _fp_trap_init                             - Undefined Weak Reference
    _fp_trap_shutdown                         - Undefined Weak Reference
    _get_lc_collate                           - Undefined Weak Reference
    _get_lc_ctype                             - Undefined Weak Reference
    _get_lc_monetary                          - Undefined Weak Reference
    _get_lc_numeric                           - Undefined Weak Reference
    _get_lc_time                              - Undefined Weak Reference
    _getenv_init                              - Undefined Weak Reference
    _handle_redirection                       - Undefined Weak Reference
    _init_alloc                               - Undefined Weak Reference
    _init_user_alloc                          - Undefined Weak Reference
    _initio                                   - Undefined Weak Reference
    _rand_init                                - Undefined Weak Reference
    _signal_finish                            - Undefined Weak Reference
    _signal_init                              - Undefined Weak Reference
    _terminate_alloc                          - Undefined Weak Reference
    _terminate_user_alloc                     - Undefined Weak Reference
    _terminateio                              - Undefined Weak Reference
    __Vectors_Size                           0x00000130   Number         0  startup_gd32f10x_hd.o ABSOLUTE
    __Vectors                                0x08000000   Data           4  startup_gd32f10x_hd.o(RESET)
    __Vectors_End                            0x08000130   Data           0  startup_gd32f10x_hd.o(RESET)
    __main                                   0x08000131   Thumb Code     8  __main.o(!!!main)
    __scatterload                            0x08000139   Thumb Code     0  __scatter.o(!!!scatter)
    __scatterload_rt2                        0x08000139   Thumb Code    44  __scatter.o(!!!scatter)
    __scatterload_rt2_thumb_only             0x08000139   Thumb Code     0  __scatter.o(!!!scatter)
    __scatterload_null                       0x08000147   Thumb Code     0  __scatter.o(!!!scatter)
    __scatterload_copy                       0x0800016d   Thumb Code    26  __scatter_copy.o(!!handler_copy)
    __scatterload_zeroinit                   0x08000189   Thumb Code    28  __scatter_zi.o(!!handler_zi)
    __rt_lib_init                            0x080001a5   Thumb Code     0  libinit.o(.ARM.Collect$$libinit$$00000000)
    __rt_lib_init_alloca_1                   0x080001a7   Thumb Code     0  libinit2.o(.ARM.Collect$$libinit$$00000030)
    __rt_lib_init_argv_1                     0x080001a7   Thumb Code     0  libinit2.o(.ARM.Collect$$libinit$$0000002E)
    __rt_lib_init_atexit_1                   0x080001a7   Thumb Code     0  libinit2.o(.ARM.Collect$$libinit$$0000001D)
    __rt_lib_init_clock_1                    0x080001a7   Thumb Code     0  libinit2.o(.ARM.Collect$$libinit$$00000023)
    __rt_lib_init_cpp_1                      0x080001a7   Thumb Code     0  libinit2.o(.ARM.Collect$$libinit$$00000034)
    __rt_lib_init_exceptions_1               0x080001a7   Thumb Code     0  libinit2.o(.ARM.Collect$$libinit$$00000032)
    __rt_lib_init_fp_1                       0x080001a7   Thumb Code     0  libinit2.o(.ARM.Collect$$libinit$$00000002)
    __rt_lib_init_fp_trap_1                  0x080001a7   Thumb Code     0  libinit2.o(.ARM.Collect$$libinit$$00000021)
    __rt_lib_init_getenv_1                   0x080001a7   Thumb Code     0  libinit2.o(.ARM.Collect$$libinit$$00000025)
    __rt_lib_init_heap_1                     0x080001a7   Thumb Code     0  libinit2.o(.ARM.Collect$$libinit$$0000000C)
    __rt_lib_init_lc_collate_1               0x080001a7   Thumb Code     0  libinit2.o(.ARM.Collect$$libinit$$00000013)
    __rt_lib_init_lc_ctype_1                 0x080001a7   Thumb Code     0  libinit2.o(.ARM.Collect$$libinit$$00000015)
    __rt_lib_init_lc_monetary_1              0x080001a7   Thumb Code     0  libinit2.o(.ARM.Collect$$libinit$$00000017)
    __rt_lib_init_lc_numeric_1               0x080001a7   Thumb Code     0  libinit2.o(.ARM.Collect$$libinit$$00000019)
    __rt_lib_init_lc_time_1                  0x080001a7   Thumb Code     0  libinit2.o(.ARM.Collect$$libinit$$0000001B)
    __rt_lib_init_preinit_1                  0x080001a7   Thumb Code     0  libinit2.o(.ARM.Collect$$libinit$$00000006)
    __rt_lib_init_rand_1                     0x080001a7   Thumb Code     0  libinit2.o(.ARM.Collect$$libinit$$00000010)
    __rt_lib_init_relocate_pie_1             0x080001a7   Thumb Code     0  libinit2.o(.ARM.Collect$$libinit$$00000004)
    __rt_lib_init_return                     0x080001a7   Thumb Code     0  libinit2.o(.ARM.Collect$$libinit$$00000035)
    __rt_lib_init_signal_1                   0x080001a7   Thumb Code     0  libinit2.o(.ARM.Collect$$libinit$$0000001F)
    __rt_lib_init_stdio_1                    0x080001a7   Thumb Code     0  libinit2.o(.ARM.Collect$$libinit$$00000027)
    __rt_lib_init_user_alloc_1               0x080001a7   Thumb Code     0  libinit2.o(.ARM.Collect$$libinit$$0000000E)
    __rt_lib_shutdown                        0x080001a9   Thumb Code     0  libshutdown.o(.ARM.Collect$$libshutdown$$00000000)
    __rt_lib_shutdown_cpp_1                  0x080001ab   Thumb Code     0  libshutdown2.o(.ARM.Collect$$libshutdown$$00000002)
    __rt_lib_shutdown_fp_trap_1              0x080001ab   Thumb Code     0  libshutdown2.o(.ARM.Collect$$libshutdown$$00000007)
    __rt_lib_shutdown_heap_1                 0x080001ab   Thumb Code     0  libshutdown2.o(.ARM.Collect$$libshutdown$$0000000F)
    __rt_lib_shutdown_return                 0x080001ab   Thumb Code     0  libshutdown2.o(.ARM.Collect$$libshutdown$$00000010)
    __rt_lib_shutdown_signal_1               0x080001ab   Thumb Code     0  libshutdown2.o(.ARM.Collect$$libshutdown$$0000000A)
    __rt_lib_shutdown_stdio_1                0x080001ab   Thumb Code     0  libshutdown2.o(.ARM.Collect$$libshutdown$$00000004)
    __rt_lib_shutdown_user_alloc_1           0x080001ab   Thumb Code     0  libshutdown2.o(.ARM.Collect$$libshutdown$$0000000C)
    __rt_entry                               0x080001ad   Thumb Code     0  __rtentry.o(.ARM.Collect$$rtentry$$00000000)
    __rt_entry_presh_1                       0x080001ad   Thumb Code     0  __rtentry2.o(.ARM.Collect$$rtentry$$00000002)
    __rt_entry_sh                            0x080001ad   Thumb Code     0  __rtentry4.o(.ARM.Collect$$rtentry$$00000004)
    __rt_entry_li                            0x080001b3   Thumb Code     0  __rtentry2.o(.ARM.Collect$$rtentry$$0000000A)
    __rt_entry_postsh_1                      0x080001b3   Thumb Code     0  __rtentry2.o(.ARM.Collect$$rtentry$$00000009)
    __rt_entry_main                          0x080001b7   Thumb Code     0  __rtentry2.o(.ARM.Collect$$rtentry$$0000000D)
    __rt_entry_postli_1                      0x080001b7   Thumb Code     0  __rtentry2.o(.ARM.Collect$$rtentry$$0000000C)
    __rt_exit                                0x080001bf   Thumb Code     0  rtexit.o(.ARM.Collect$$rtexit$$00000000)
    __rt_exit_ls                             0x080001c1   Thumb Code     0  rtexit2.o(.ARM.Collect$$rtexit$$00000003)
    __rt_exit_prels_1                        0x080001c1   Thumb Code     0  rtexit2.o(.ARM.Collect$$rtexit$$00000002)
    __rt_exit_exit                           0x080001c5   Thumb Code     0  rtexit2.o(.ARM.Collect$$rtexit$$00000004)
    main                                     0x080001cd   Thumb Code   790  main.o(.text)
    ShowBatteryState                         0x080004e5   Thumb Code     2  main.o(.text)
    BeepsBackwards                           0x080004e9   Thumb Code    60  main.o(.text)
    ShutOff                                  0x08000525   Thumb Code     2  main.o(.text)
    SetEnable                                0x08000529   Thumb Code    12  bldc.o(.text)
    SetPWM                                   0x08000535   Thumb Code    38  bldc.o(.text)
    CalculateBLDC                            0x0800055d   Thumb Code   834  bldc.o(.text)
    Interrupt_init                           0x080008a1   Thumb Code     8  setup.o(.text)
    Watchdog_init                            0x080008a9   Thumb Code    44  setup.o(.text)
    TimeoutTimer_init                        0x080008d5   Thumb Code    94  setup.o(.text)
    GPIO_init                                0x08000935   Thumb Code   380  setup.o(.text)
    PWM_init                                 0x08000ab1   Thumb Code   370  setup.o(.text)
    ADC_init_Poll                            0x08000c25   Thumb Code   114  setup.o(.text)
    ADC_init                                 0x08000c99   Thumb Code   272  setup.o(.text)
    USART_MasterSlave_init                   0x08000da9   Thumb Code   244  setup.o(.text)
    USART_Steer_COM_init                     0x08000e9d   Thumb Code   220  setup.o(.text)
    SysTick_Handler                          0x08000f79   Thumb Code    16  it.o(.text)
    ResetTimeout                             0x08000f89   Thumb Code    14  it.o(.text)
    TIMER3_IRQHandler                        0x08000f99   Thumb Code    96  it.o(.text)
    TIMER0_UP_IRQHandler                     0x08000ff9   Thumb Code    32  it.o(.text)
    DMA0_Channel0_IRQHandler                 0x08001019   Thumb Code    42  it.o(.text)
    DMA_Channel1_2_IRQHandler                0x08001045   Thumb Code    42  it.o(.text)
    DMA_Channel3_4_IRQHandler                0x08001071   Thumb Code    42  it.o(.text)
    millis                                   0x0800109d   Thumb Code    12  it.o(.text)
    Delay                                    0x080010a9   Thumb Code    60  it.o(.text)
    NMI_Handler                              0x080010e5   Thumb Code     2  it.o(.text)
    HardFault_Handler                        0x080010e9   Thumb Code     2  it.o(.text)
    MemManage_Handler                        0x080010ed   Thumb Code     2  it.o(.text)
    BusFault_Handler                         0x080010f1   Thumb Code     2  it.o(.text)
    UsageFault_Handler                       0x080010f5   Thumb Code     2  it.o(.text)
    SVC_Handler                              0x080010f9   Thumb Code     2  it.o(.text)
    DebugMon_Handler                         0x080010fd   Thumb Code     2  it.o(.text)
    PendSV_Handler                           0x08001101   Thumb Code     2  it.o(.text)
    SendBuffer                               0x08001105   Thumb Code    46  comms.o(.text)
    CalcCRC                                  0x08001135   Thumb Code   364  comms.o(.text)
    SendSteerDevice                          0x080012a1   Thumb Code    34  commssteering.o(.text)
    UpdateUSARTSteerInput                    0x080012c5   Thumb Code   172  commssteering.o(.text)
    CheckUSARTSteerInput                     0x08001371   Thumb Code    84  commssteering.o(.text)
    UpdateUSARTMasterSlaveInput              0x080013c5   Thumb Code   148  commsmasterslave.o(.text)
    CheckUSARTMasterSlaveInput               0x08001459   Thumb Code    60  commsmasterslave.o(.text)
    SendSlave                                0x08001495   Thumb Code   126  commsmasterslave.o(.text)
    adc_deinit                               0x08001515   Thumb Code    72  gd32f10x_adc.o(.text)
    adc_mode_config                          0x0800155d   Thumb Code    24  gd32f10x_adc.o(.text)
    adc_special_function_config              0x08001575   Thumb Code    92  gd32f10x_adc.o(.text)
    adc_data_alignment_config                0x080015d1   Thumb Code    18  gd32f10x_adc.o(.text)
    adc_enable                               0x080015e5   Thumb Code    18  gd32f10x_adc.o(.text)
    adc_disable                              0x080015f9   Thumb Code    10  gd32f10x_adc.o(.text)
    adc_calibration_enable                   0x08001605   Thumb Code    74  gd32f10x_adc.o(.text)
    adc_tempsensor_vrefint_enable            0x08001651   Thumb Code    18  gd32f10x_adc.o(.text)
    adc_tempsensor_vrefint_disable           0x08001665   Thumb Code    18  gd32f10x_adc.o(.text)
    adc_dma_mode_enable                      0x08001679   Thumb Code    10  gd32f10x_adc.o(.text)
    adc_dma_mode_disable                     0x08001685   Thumb Code    10  gd32f10x_adc.o(.text)
    adc_discontinuous_mode_config            0x08001691   Thumb Code    60  gd32f10x_adc.o(.text)
    adc_channel_length_config                0x080016cd   Thumb Code    58  gd32f10x_adc.o(.text)
    adc_regular_channel_config               0x08001709   Thumb Code   164  gd32f10x_adc.o(.text)
    adc_inserted_channel_config              0x080017ad   Thumb Code   100  gd32f10x_adc.o(.text)
    adc_inserted_channel_offset_config       0x08001811   Thumb Code    26  gd32f10x_adc.o(.text)
    adc_external_trigger_source_config       0x0800182d   Thumb Code    34  gd32f10x_adc.o(.text)
    adc_external_trigger_config              0x08001851   Thumb Code    64  gd32f10x_adc.o(.text)
    adc_software_trigger_enable              0x08001891   Thumb Code    28  gd32f10x_adc.o(.text)
    adc_regular_data_read                    0x080018ad   Thumb Code     6  gd32f10x_adc.o(.text)
    adc_inserted_data_read                   0x080018b5   Thumb Code    16  gd32f10x_adc.o(.text)
    adc_sync_mode_convert_value_read         0x080018c5   Thumb Code    12  gd32f10x_adc.o(.text)
    adc_watchdog_single_channel_enable       0x080018d1   Thumb Code    34  gd32f10x_adc.o(.text)
    adc_watchdog_group_channel_enable        0x080018f5   Thumb Code    40  gd32f10x_adc.o(.text)
    adc_watchdog_disable                     0x08001929   Thumb Code    16  gd32f10x_adc.o(.text)
    adc_watchdog_threshold_config            0x08001939   Thumb Code    14  gd32f10x_adc.o(.text)
    adc_flag_get                             0x08001949   Thumb Code    10  gd32f10x_adc.o(.text)
    adc_flag_clear                           0x08001955   Thumb Code    10  gd32f10x_adc.o(.text)
    adc_regular_software_startconv_flag_get  0x08001961   Thumb Code     8  gd32f10x_adc.o(.text)
    adc_inserted_software_startconv_flag_get 0x08001969   Thumb Code     8  gd32f10x_adc.o(.text)
    adc_interrupt_flag_get                   0x08001971   Thumb Code    48  gd32f10x_adc.o(.text)
    adc_interrupt_flag_clear                 0x080019a1   Thumb Code    10  gd32f10x_adc.o(.text)
    adc_interrupt_enable                     0x080019ad   Thumb Code    40  gd32f10x_adc.o(.text)
    adc_interrupt_disable                    0x080019d5   Thumb Code    40  gd32f10x_adc.o(.text)
    dma_deinit                               0x080019fd   Thumb Code    60  gd32f10x_dma.o(.text)
    dma_struct_para_init                     0x08001a39   Thumb Code    20  gd32f10x_dma.o(.text)
    dma_init                                 0x08001a4d   Thumb Code   116  gd32f10x_dma.o(.text)
    dma_circulation_enable                   0x08001ac1   Thumb Code    36  gd32f10x_dma.o(.text)
    dma_circulation_disable                  0x08001ae5   Thumb Code    36  gd32f10x_dma.o(.text)
    dma_memory_to_memory_enable              0x08001b09   Thumb Code    36  gd32f10x_dma.o(.text)
    dma_memory_to_memory_disable             0x08001b2d   Thumb Code    36  gd32f10x_dma.o(.text)
    dma_channel_enable                       0x08001b51   Thumb Code    36  gd32f10x_dma.o(.text)
    dma_channel_disable                      0x08001b75   Thumb Code    36  gd32f10x_dma.o(.text)
    dma_periph_address_config                0x08001b99   Thumb Code    30  gd32f10x_dma.o(.text)
    dma_memory_address_config                0x08001bb9   Thumb Code    30  gd32f10x_dma.o(.text)
    dma_transfer_number_config               0x08001bd9   Thumb Code    32  gd32f10x_dma.o(.text)
    dma_transfer_number_get                  0x08001bf9   Thumb Code    30  gd32f10x_dma.o(.text)
    dma_priority_config                      0x08001c19   Thumb Code    38  gd32f10x_dma.o(.text)
    dma_memory_width_config                  0x08001c41   Thumb Code    38  gd32f10x_dma.o(.text)
    dma_periph_width_config                  0x08001c69   Thumb Code    38  gd32f10x_dma.o(.text)
    dma_memory_increase_enable               0x08001c91   Thumb Code    36  gd32f10x_dma.o(.text)
    dma_memory_increase_disable              0x08001cb5   Thumb Code    36  gd32f10x_dma.o(.text)
    dma_periph_increase_enable               0x08001cd9   Thumb Code    36  gd32f10x_dma.o(.text)
    dma_periph_increase_disable              0x08001cfd   Thumb Code    36  gd32f10x_dma.o(.text)
    dma_transfer_direction_config            0x08001d21   Thumb Code    42  gd32f10x_dma.o(.text)
    dma_flag_get                             0x08001d4d   Thumb Code    16  gd32f10x_dma.o(.text)
    dma_flag_clear                           0x08001d5d   Thumb Code    14  gd32f10x_dma.o(.text)
    dma_interrupt_flag_get                   0x08001d6d   Thumb Code    58  gd32f10x_dma.o(.text)
    dma_interrupt_flag_clear                 0x08001da9   Thumb Code    14  gd32f10x_dma.o(.text)
    dma_interrupt_enable                     0x08001db9   Thumb Code    34  gd32f10x_dma.o(.text)
    dma_interrupt_disable                    0x08001ddd   Thumb Code    34  gd32f10x_dma.o(.text)
    fwdgt_write_enable                       0x08001e01   Thumb Code    16  gd32f10x_fwdgt.o(.text)
    fwdgt_write_disable                      0x08001e11   Thumb Code    14  gd32f10x_fwdgt.o(.text)
    fwdgt_enable                             0x08001e21   Thumb Code    16  gd32f10x_fwdgt.o(.text)
    fwdgt_counter_reload                     0x08001e31   Thumb Code    16  gd32f10x_fwdgt.o(.text)
    fwdgt_config                             0x08001e41   Thumb Code   194  gd32f10x_fwdgt.o(.text)
    fwdgt_flag_get                           0x08001f05   Thumb Code    18  gd32f10x_fwdgt.o(.text)
    gpio_deinit                              0x08001f19   Thumb Code    42  gd32f10x_gpio.o(.text)
    gpio_afio_deinit                         0x08001f45   Thumb Code    22  gd32f10x_gpio.o(.text)
    gpio_init                                0x08001f5d   Thumb Code   688  gd32f10x_gpio.o(.text)
    gpio_bit_set                             0x0800220d   Thumb Code     4  gd32f10x_gpio.o(.text)
    gpio_bit_reset                           0x08002211   Thumb Code     4  gd32f10x_gpio.o(.text)
    gpio_bit_write                           0x08002215   Thumb Code    12  gd32f10x_gpio.o(.text)
    gpio_port_write                          0x08002221   Thumb Code     4  gd32f10x_gpio.o(.text)
    gpio_input_bit_get                       0x08002225   Thumb Code    10  gd32f10x_gpio.o(.text)
    gpio_input_port_get                      0x08002231   Thumb Code     6  gd32f10x_gpio.o(.text)
    gpio_output_bit_get                      0x08002239   Thumb Code    10  gd32f10x_gpio.o(.text)
    gpio_output_port_get                     0x08002245   Thumb Code     6  gd32f10x_gpio.o(.text)
    gpio_pin_remap_config                    0x0800224d   Thumb Code   122  gd32f10x_gpio.o(.text)
    gpio_exti_source_select                  0x080022c9   Thumb Code   130  gd32f10x_gpio.o(.text)
    gpio_event_output_config                 0x0800234d   Thumb Code    22  gd32f10x_gpio.o(.text)
    gpio_event_output_enable                 0x08002365   Thumb Code    16  gd32f10x_gpio.o(.text)
    gpio_event_output_disable                0x08002375   Thumb Code    16  gd32f10x_gpio.o(.text)
    gpio_pin_lock                            0x08002385   Thumb Code    16  gd32f10x_gpio.o(.text)
    nvic_priority_group_set                  0x08002395   Thumb Code    20  gd32f10x_misc.o(.text)
    nvic_irq_enable                          0x080023a9   Thumb Code   100  gd32f10x_misc.o(.text)
    nvic_irq_disable                         0x0800240d   Thumb Code    30  gd32f10x_misc.o(.text)
    nvic_vector_table_set                    0x0800242d   Thumb Code    24  gd32f10x_misc.o(.text)
    system_lowpower_set                      0x08002445   Thumb Code    16  gd32f10x_misc.o(.text)
    system_lowpower_reset                    0x08002455   Thumb Code    18  gd32f10x_misc.o(.text)
    systick_clksource_set                    0x08002469   Thumb Code    24  gd32f10x_misc.o(.text)
    rcu_deinit                               0x08002481   Thumb Code   100  gd32f10x_rcu.o(.text)
    rcu_osci_stab_wait                       0x080024e5   Thumb Code   308  gd32f10x_rcu.o(.text)
    rcu_periph_clock_enable                  0x08002619   Thumb Code    30  gd32f10x_rcu.o(.text)
    rcu_periph_clock_disable                 0x08002639   Thumb Code    32  gd32f10x_rcu.o(.text)
    rcu_periph_clock_sleep_enable            0x08002659   Thumb Code    30  gd32f10x_rcu.o(.text)
    rcu_periph_clock_sleep_disable           0x08002679   Thumb Code    32  gd32f10x_rcu.o(.text)
    rcu_periph_reset_enable                  0x08002699   Thumb Code    30  gd32f10x_rcu.o(.text)
    rcu_periph_reset_disable                 0x080026b9   Thumb Code    32  gd32f10x_rcu.o(.text)
    rcu_bkp_reset_enable                     0x080026d9   Thumb Code    18  gd32f10x_rcu.o(.text)
    rcu_bkp_reset_disable                    0x080026ed   Thumb Code    18  gd32f10x_rcu.o(.text)
    rcu_system_clock_source_config           0x08002701   Thumb Code    20  gd32f10x_rcu.o(.text)
    rcu_system_clock_source_get              0x08002715   Thumb Code    16  gd32f10x_rcu.o(.text)
    rcu_ahb_clock_config                     0x08002725   Thumb Code    20  gd32f10x_rcu.o(.text)
    rcu_apb1_clock_config                    0x08002739   Thumb Code    20  gd32f10x_rcu.o(.text)
    rcu_apb2_clock_config                    0x0800274d   Thumb Code    20  gd32f10x_rcu.o(.text)
    rcu_ckout0_config                        0x08002761   Thumb Code    20  gd32f10x_rcu.o(.text)
    rcu_pll_config                           0x08002775   Thumb Code    32  gd32f10x_rcu.o(.text)
    rcu_predv0_config                        0x08002795   Thumb Code    26  gd32f10x_rcu.o(.text)
    rcu_adc_clock_config                     0x080027b1   Thumb Code    64  gd32f10x_rcu.o(.text)
    rcu_usb_clock_config                     0x080027f1   Thumb Code    20  gd32f10x_rcu.o(.text)
    rcu_rtc_clock_config                     0x08002805   Thumb Code    20  gd32f10x_rcu.o(.text)
    rcu_flag_get                             0x08002819   Thumb Code    26  gd32f10x_rcu.o(.text)
    rcu_all_reset_flag_clear                 0x08002835   Thumb Code    18  gd32f10x_rcu.o(.text)
    rcu_interrupt_flag_get                   0x08002849   Thumb Code    26  gd32f10x_rcu.o(.text)
    rcu_interrupt_flag_clear                 0x08002865   Thumb Code    30  gd32f10x_rcu.o(.text)
    rcu_interrupt_enable                     0x08002885   Thumb Code    30  gd32f10x_rcu.o(.text)
    rcu_interrupt_disable                    0x080028a5   Thumb Code    32  gd32f10x_rcu.o(.text)
    rcu_osci_on                              0x080028c5   Thumb Code    30  gd32f10x_rcu.o(.text)
    rcu_osci_off                             0x080028e5   Thumb Code    32  gd32f10x_rcu.o(.text)
    rcu_osci_bypass_mode_enable              0x08002905   Thumb Code    64  gd32f10x_rcu.o(.text)
    rcu_osci_bypass_mode_disable             0x08002945   Thumb Code    64  gd32f10x_rcu.o(.text)
    rcu_hxtal_clock_monitor_enable           0x08002985   Thumb Code    18  gd32f10x_rcu.o(.text)
    rcu_hxtal_clock_monitor_disable          0x08002999   Thumb Code    18  gd32f10x_rcu.o(.text)
    rcu_irc8m_adjust_value_set               0x080029ad   Thumb Code    18  gd32f10x_rcu.o(.text)
    rcu_deepsleep_voltage_set                0x080029c1   Thumb Code    16  gd32f10x_rcu.o(.text)
    rcu_clock_freq_get                       0x080029d1   Thumb Code   160  gd32f10x_rcu.o(.text)
    timer_deinit                             0x08002a81   Thumb Code   194  gd32f10x_timer.o(.text)
    timer_struct_para_init                   0x08002b45   Thumb Code    18  gd32f10x_timer.o(.text)
    timer_init                               0x08002b59   Thumb Code   284  gd32f10x_timer.o(.text)
    timer_enable                             0x08002c75   Thumb Code    10  gd32f10x_timer.o(.text)
    timer_disable                            0x08002c81   Thumb Code    10  gd32f10x_timer.o(.text)
    timer_auto_reload_shadow_enable          0x08002c8d   Thumb Code    10  gd32f10x_timer.o(.text)
    timer_auto_reload_shadow_disable         0x08002c99   Thumb Code    10  gd32f10x_timer.o(.text)
    timer_update_event_enable                0x08002ca5   Thumb Code    10  gd32f10x_timer.o(.text)
    timer_update_event_disable               0x08002cb1   Thumb Code    10  gd32f10x_timer.o(.text)
    timer_counter_alignment                  0x08002cbd   Thumb Code    16  gd32f10x_timer.o(.text)
    timer_counter_up_direction               0x08002ccd   Thumb Code    10  gd32f10x_timer.o(.text)
    timer_counter_down_direction             0x08002cd9   Thumb Code    10  gd32f10x_timer.o(.text)
    timer_prescaler_config                   0x08002ce5   Thumb Code    18  gd32f10x_timer.o(.text)
    timer_repetition_value_config            0x08002cf9   Thumb Code     4  gd32f10x_timer.o(.text)
    timer_autoreload_value_config            0x08002cfd   Thumb Code     4  gd32f10x_timer.o(.text)
    timer_counter_value_config               0x08002d01   Thumb Code     4  gd32f10x_timer.o(.text)
    timer_counter_read                       0x08002d05   Thumb Code     4  gd32f10x_timer.o(.text)
    timer_prescaler_read                     0x08002d09   Thumb Code     6  gd32f10x_timer.o(.text)
    timer_single_pulse_mode_config           0x08002d11   Thumb Code    28  gd32f10x_timer.o(.text)
    timer_update_source_config               0x08002d2d   Thumb Code    28  gd32f10x_timer.o(.text)
    timer_dma_enable                         0x08002d49   Thumb Code     8  gd32f10x_timer.o(.text)
    timer_dma_disable                        0x08002d51   Thumb Code    10  gd32f10x_timer.o(.text)
    timer_channel_dma_request_source_select  0x08002d5d   Thumb Code    28  gd32f10x_timer.o(.text)
    timer_dma_transfer_config                0x08002d79   Thumb Code    24  gd32f10x_timer.o(.text)
    timer_event_software_generate            0x08002d91   Thumb Code     8  gd32f10x_timer.o(.text)
    timer_break_struct_para_init             0x08002d99   Thumb Code    12  gd32f10x_timer.o(.text)
    timer_break_config                       0x08002da5   Thumb Code    38  gd32f10x_timer.o(.text)
    timer_break_enable                       0x08002dcd   Thumb Code    10  gd32f10x_timer.o(.text)
    timer_break_disable                      0x08002dd9   Thumb Code    10  gd32f10x_timer.o(.text)
    timer_automatic_output_enable            0x08002de5   Thumb Code    10  gd32f10x_timer.o(.text)
    timer_automatic_output_disable           0x08002df1   Thumb Code    10  gd32f10x_timer.o(.text)
    timer_primary_output_config              0x08002dfd   Thumb Code    18  gd32f10x_timer.o(.text)
    timer_channel_control_shadow_config      0x08002e11   Thumb Code    16  gd32f10x_timer.o(.text)
    timer_channel_control_shadow_update_config 0x08002e21   Thumb Code    30  gd32f10x_timer.o(.text)
    timer_channel_output_struct_para_init    0x08002e41   Thumb Code    10  gd32f10x_timer.o(.text)
    timer_channel_output_config              0x08002e4d   Thumb Code   518  gd32f10x_timer.o(.text)
    timer_channel_output_mode_config         0x08003055   Thumb Code    58  gd32f10x_timer.o(.text)
    timer_channel_output_pulse_value_config  0x08003091   Thumb Code    12  gd32f10x_timer.o(.text)
    timer_channel_output_shadow_config       0x0800309d   Thumb Code    58  gd32f10x_timer.o(.text)
    timer_channel_output_fast_config         0x080030d9   Thumb Code    58  gd32f10x_timer.o(.text)
    timer_channel_output_clear_config        0x08003115   Thumb Code    58  gd32f10x_timer.o(.text)
    timer_channel_output_polarity_config     0x08003151   Thumb Code    74  gd32f10x_timer.o(.text)
    timer_channel_complementary_output_polarity_config 0x0800319d   Thumb Code    60  gd32f10x_timer.o(.text)
    timer_channel_output_state_config        0x080031d9   Thumb Code    74  gd32f10x_timer.o(.text)
    timer_channel_complementary_output_state_config 0x08003225   Thumb Code    60  gd32f10x_timer.o(.text)
    timer_channel_input_struct_para_init     0x08003261   Thumb Code    12  gd32f10x_timer.o(.text)
    timer_input_capture_config               0x0800326d   Thumb Code   356  gd32f10x_timer.o(.text)
    timer_channel_input_capture_prescaler_config 0x080033d1   Thumb Code    58  gd32f10x_timer.o(.text)
    timer_channel_capture_value_register_read 0x0800340d   Thumb Code    14  gd32f10x_timer.o(.text)
    timer_input_pwm_capture_config           0x0800341d   Thumb Code   356  gd32f10x_timer.o(.text)
    timer_hall_mode_config                   0x08003581   Thumb Code    28  gd32f10x_timer.o(.text)
    timer_input_trigger_source_select        0x0800359d   Thumb Code    16  gd32f10x_timer.o(.text)
    timer_master_output_trigger_source_select 0x080035ad   Thumb Code    16  gd32f10x_timer.o(.text)
    timer_slave_mode_select                  0x080035bd   Thumb Code    16  gd32f10x_timer.o(.text)
    timer_master_slave_mode_config           0x080035cd   Thumb Code    28  gd32f10x_timer.o(.text)
    timer_external_trigger_config            0x080035e9   Thumb Code    34  gd32f10x_timer.o(.text)
    timer_quadrature_decoder_mode_config     0x0800360d   Thumb Code    78  gd32f10x_timer.o(.text)
    timer_internal_clock_config              0x0800365d   Thumb Code    10  gd32f10x_timer.o(.text)
    timer_internal_trigger_as_external_clock_config 0x08003669   Thumb Code    32  gd32f10x_timer.o(.text)
    timer_external_trigger_as_external_clock_config 0x08003689   Thumb Code   174  gd32f10x_timer.o(.text)
    timer_external_clock_mode0_config        0x08003739   Thumb Code    50  gd32f10x_timer.o(.text)
    timer_external_clock_mode1_config        0x0800376d   Thumb Code    42  gd32f10x_timer.o(.text)
    timer_external_clock_mode1_disable       0x08003799   Thumb Code    10  gd32f10x_timer.o(.text)
    timer_interrupt_enable                   0x080037a5   Thumb Code     8  gd32f10x_timer.o(.text)
    timer_interrupt_disable                  0x080037ad   Thumb Code    10  gd32f10x_timer.o(.text)
    timer_interrupt_flag_get                 0x080037b9   Thumb Code    22  gd32f10x_timer.o(.text)
    timer_interrupt_flag_clear               0x080037d1   Thumb Code    10  gd32f10x_timer.o(.text)
    timer_flag_get                           0x080037dd   Thumb Code    10  gd32f10x_timer.o(.text)
    timer_flag_clear                         0x080037e9   Thumb Code    10  gd32f10x_timer.o(.text)
    usart_deinit                             0x080037f5   Thumb Code   122  gd32f10x_usart.o(.text)
    usart_baudrate_set                       0x08003871   Thumb Code   106  gd32f10x_usart.o(.text)
    usart_parity_config                      0x080038dd   Thumb Code    16  gd32f10x_usart.o(.text)
    usart_word_length_set                    0x080038ed   Thumb Code    16  gd32f10x_usart.o(.text)
    usart_stop_bit_set                       0x080038fd   Thumb Code    16  gd32f10x_usart.o(.text)
    usart_enable                             0x0800390d   Thumb Code    10  gd32f10x_usart.o(.text)
    usart_disable                            0x08003919   Thumb Code    10  gd32f10x_usart.o(.text)
    usart_transmit_config                    0x08003925   Thumb Code    12  gd32f10x_usart.o(.text)
    usart_receive_config                     0x08003931   Thumb Code    12  gd32f10x_usart.o(.text)
    usart_data_transmit                      0x0800393d   Thumb Code     8  gd32f10x_usart.o(.text)
    usart_data_receive                       0x08003945   Thumb Code     8  gd32f10x_usart.o(.text)
    usart_address_config                     0x0800394d   Thumb Code    20  gd32f10x_usart.o(.text)
    usart_mute_mode_enable                   0x08003961   Thumb Code    10  gd32f10x_usart.o(.text)
    usart_mute_mode_disable                  0x0800396d   Thumb Code    10  gd32f10x_usart.o(.text)
    usart_mute_mode_wakeup_config            0x08003979   Thumb Code    16  gd32f10x_usart.o(.text)
    usart_lin_mode_enable                    0x08003989   Thumb Code    10  gd32f10x_usart.o(.text)
    usart_lin_mode_disable                   0x08003995   Thumb Code    10  gd32f10x_usart.o(.text)
    usart_lin_break_detection_length_config  0x080039a1   Thumb Code    20  gd32f10x_usart.o(.text)
    usart_send_break                         0x080039b5   Thumb Code    10  gd32f10x_usart.o(.text)
    usart_halfduplex_enable                  0x080039c1   Thumb Code    10  gd32f10x_usart.o(.text)
    usart_halfduplex_disable                 0x080039cd   Thumb Code    10  gd32f10x_usart.o(.text)
    usart_synchronous_clock_enable           0x080039d9   Thumb Code    10  gd32f10x_usart.o(.text)
    usart_synchronous_clock_disable          0x080039e5   Thumb Code    10  gd32f10x_usart.o(.text)
    usart_synchronous_clock_config           0x080039f1   Thumb Code    30  gd32f10x_usart.o(.text)
    usart_guard_time_config                  0x08003a11   Thumb Code    20  gd32f10x_usart.o(.text)
    usart_smartcard_mode_enable              0x08003a25   Thumb Code    10  gd32f10x_usart.o(.text)
    usart_smartcard_mode_disable             0x08003a31   Thumb Code    10  gd32f10x_usart.o(.text)
    usart_smartcard_mode_nack_enable         0x08003a3d   Thumb Code    10  gd32f10x_usart.o(.text)
    usart_smartcard_mode_nack_disable        0x08003a49   Thumb Code    10  gd32f10x_usart.o(.text)
    usart_irda_mode_enable                   0x08003a55   Thumb Code    10  gd32f10x_usart.o(.text)
    usart_irda_mode_disable                  0x08003a61   Thumb Code    10  gd32f10x_usart.o(.text)
    usart_prescaler_config                   0x08003a6d   Thumb Code    16  gd32f10x_usart.o(.text)
    usart_irda_lowpower_config               0x08003a7d   Thumb Code    20  gd32f10x_usart.o(.text)
    usart_hardware_flow_rts_config           0x08003a91   Thumb Code    12  gd32f10x_usart.o(.text)
    usart_hardware_flow_cts_config           0x08003a9d   Thumb Code    12  gd32f10x_usart.o(.text)
    usart_dma_receive_config                 0x08003aa9   Thumb Code    12  gd32f10x_usart.o(.text)
    usart_dma_transmit_config                0x08003ab5   Thumb Code    12  gd32f10x_usart.o(.text)
    usart_flag_get                           0x08003ac1   Thumb Code    16  gd32f10x_usart.o(.text)
    usart_flag_clear                         0x08003ad1   Thumb Code    24  gd32f10x_usart.o(.text)
    usart_interrupt_enable                   0x08003ae9   Thumb Code    24  gd32f10x_usart.o(.text)
    usart_interrupt_disable                  0x08003b01   Thumb Code    26  gd32f10x_usart.o(.text)
    usart_interrupt_flag_get                 0x08003b1d   Thumb Code    34  gd32f10x_usart.o(.text)
    usart_interrupt_flag_clear               0x08003b41   Thumb Code    24  gd32f10x_usart.o(.text)
    Reset_Handler                            0x08003b59   Thumb Code     8  startup_gd32f10x_hd.o(.text)
    ADC0_1_IRQHandler                        0x08003b73   Thumb Code     0  startup_gd32f10x_hd.o(.text)
    ADC2_IRQHandler                          0x08003b73   Thumb Code     0  startup_gd32f10x_hd.o(.text)
    CAN0_EWMC_IRQHandler                     0x08003b73   Thumb Code     0  startup_gd32f10x_hd.o(.text)
    CAN0_RX1_IRQHandler                      0x08003b73   Thumb Code     0  startup_gd32f10x_hd.o(.text)
    DMA0_Channel1_IRQHandler                 0x08003b73   Thumb Code     0  startup_gd32f10x_hd.o(.text)
    DMA0_Channel2_IRQHandler                 0x08003b73   Thumb Code     0  startup_gd32f10x_hd.o(.text)
    DMA0_Channel3_IRQHandler                 0x08003b73   Thumb Code     0  startup_gd32f10x_hd.o(.text)
    DMA0_Channel4_IRQHandler                 0x08003b73   Thumb Code     0  startup_gd32f10x_hd.o(.text)
    DMA0_Channel5_IRQHandler                 0x08003b73   Thumb Code     0  startup_gd32f10x_hd.o(.text)
    DMA0_Channel6_IRQHandler                 0x08003b73   Thumb Code     0  startup_gd32f10x_hd.o(.text)
    DMA1_Channel0_IRQHandler                 0x08003b73   Thumb Code     0  startup_gd32f10x_hd.o(.text)
    DMA1_Channel1_IRQHandler                 0x08003b73   Thumb Code     0  startup_gd32f10x_hd.o(.text)
    DMA1_Channel2_IRQHandler                 0x08003b73   Thumb Code     0  startup_gd32f10x_hd.o(.text)
    DMA1_Channel3_4_IRQHandler               0x08003b73   Thumb Code     0  startup_gd32f10x_hd.o(.text)
    EXMC_IRQHandler                          0x08003b73   Thumb Code     0  startup_gd32f10x_hd.o(.text)
    EXTI0_IRQHandler                         0x08003b73   Thumb Code     0  startup_gd32f10x_hd.o(.text)
    EXTI10_15_IRQHandler                     0x08003b73   Thumb Code     0  startup_gd32f10x_hd.o(.text)
    EXTI1_IRQHandler                         0x08003b73   Thumb Code     0  startup_gd32f10x_hd.o(.text)
    EXTI2_IRQHandler                         0x08003b73   Thumb Code     0  startup_gd32f10x_hd.o(.text)
    EXTI3_IRQHandler                         0x08003b73   Thumb Code     0  startup_gd32f10x_hd.o(.text)
    EXTI4_IRQHandler                         0x08003b73   Thumb Code     0  startup_gd32f10x_hd.o(.text)
    EXTI5_9_IRQHandler                       0x08003b73   Thumb Code     0  startup_gd32f10x_hd.o(.text)
    FMC_IRQHandler                           0x08003b73   Thumb Code     0  startup_gd32f10x_hd.o(.text)
    I2C0_ER_IRQHandler                       0x08003b73   Thumb Code     0  startup_gd32f10x_hd.o(.text)
    I2C0_EV_IRQHandler                       0x08003b73   Thumb Code     0  startup_gd32f10x_hd.o(.text)
    I2C1_ER_IRQHandler                       0x08003b73   Thumb Code     0  startup_gd32f10x_hd.o(.text)
    I2C1_EV_IRQHandler                       0x08003b73   Thumb Code     0  startup_gd32f10x_hd.o(.text)
    LVD_IRQHandler                           0x08003b73   Thumb Code     0  startup_gd32f10x_hd.o(.text)
    RCU_IRQHandler                           0x08003b73   Thumb Code     0  startup_gd32f10x_hd.o(.text)
    RTC_Alarm_IRQHandler                     0x08003b73   Thumb Code     0  startup_gd32f10x_hd.o(.text)
    RTC_IRQHandler                           0x08003b73   Thumb Code     0  startup_gd32f10x_hd.o(.text)
    SDIO_IRQHandler                          0x08003b73   Thumb Code     0  startup_gd32f10x_hd.o(.text)
    SPI0_IRQHandler                          0x08003b73   Thumb Code     0  startup_gd32f10x_hd.o(.text)
    SPI1_IRQHandler                          0x08003b73   Thumb Code     0  startup_gd32f10x_hd.o(.text)
    SPI2_IRQHandler                          0x08003b73   Thumb Code     0  startup_gd32f10x_hd.o(.text)
    TAMPER_IRQHandler                        0x08003b73   Thumb Code     0  startup_gd32f10x_hd.o(.text)
    TIMER0_BRK_IRQHandler                    0x08003b73   Thumb Code     0  startup_gd32f10x_hd.o(.text)
    TIMER0_Channel_IRQHandler                0x08003b73   Thumb Code     0  startup_gd32f10x_hd.o(.text)
    TIMER0_TRG_CMT_IRQHandler                0x08003b73   Thumb Code     0  startup_gd32f10x_hd.o(.text)
    TIMER1_IRQHandler                        0x08003b73   Thumb Code     0  startup_gd32f10x_hd.o(.text)
    TIMER2_IRQHandler                        0x08003b73   Thumb Code     0  startup_gd32f10x_hd.o(.text)
    TIMER4_IRQHandler                        0x08003b73   Thumb Code     0  startup_gd32f10x_hd.o(.text)
    TIMER5_IRQHandler                        0x08003b73   Thumb Code     0  startup_gd32f10x_hd.o(.text)
    TIMER6_IRQHandler                        0x08003b73   Thumb Code     0  startup_gd32f10x_hd.o(.text)
    TIMER7_BRK_IRQHandler                    0x08003b73   Thumb Code     0  startup_gd32f10x_hd.o(.text)
    TIMER7_Channel_IRQHandler                0x08003b73   Thumb Code     0  startup_gd32f10x_hd.o(.text)
    TIMER7_TRG_CMT_IRQHandler                0x08003b73   Thumb Code     0  startup_gd32f10x_hd.o(.text)
    TIMER7_UP_IRQHandler                     0x08003b73   Thumb Code     0  startup_gd32f10x_hd.o(.text)
    UART3_IRQHandler                         0x08003b73   Thumb Code     0  startup_gd32f10x_hd.o(.text)
    UART4_IRQHandler                         0x08003b73   Thumb Code     0  startup_gd32f10x_hd.o(.text)
    USART0_IRQHandler                        0x08003b73   Thumb Code     0  startup_gd32f10x_hd.o(.text)
    USART1_IRQHandler                        0x08003b73   Thumb Code     0  startup_gd32f10x_hd.o(.text)
    USART2_IRQHandler                        0x08003b73   Thumb Code     0  startup_gd32f10x_hd.o(.text)
    USBD_HP_CAN0_TX_IRQHandler               0x08003b73   Thumb Code     0  startup_gd32f10x_hd.o(.text)
    USBD_LP_CAN0_RX0_IRQHandler              0x08003b73   Thumb Code     0  startup_gd32f10x_hd.o(.text)
    USBD_WKUP_IRQHandler                     0x08003b73   Thumb Code     0  startup_gd32f10x_hd.o(.text)
    WWDGT_IRQHandler                         0x08003b73   Thumb Code     0  startup_gd32f10x_hd.o(.text)
    __user_initial_stackheap                 0x08003b75   Thumb Code    10  startup_gd32f10x_hd.o(.text)
    SystemInit                               0x08003b99   Thumb Code   294  system_gd32f10x.o(.text)
    SystemCoreClockUpdate                    0x08003cc1   Thumb Code    90  system_gd32f10x.o(.text)
    __use_two_region_memory                  0x08003d1b   Thumb Code     2  heapauxi.o(.text)
    __rt_heap_escrow$2region                 0x08003d1d   Thumb Code     2  heapauxi.o(.text)
    __rt_heap_expand$2region                 0x08003d1f   Thumb Code     2  heapauxi.o(.text)
    __user_setup_stackheap                   0x08003d21   Thumb Code    74  sys_stackheap_outer.o(.text)
    exit                                     0x08003d6b   Thumb Code    18  exit.o(.text)
    __user_libspace                          0x08003d7d   Thumb Code     8  libspace.o(.text)
    __user_perproc_libspace                  0x08003d7d   Thumb Code     0  libspace.o(.text)
    __user_perthread_libspace                0x08003d7d   Thumb Code     0  libspace.o(.text)
    _sys_exit                                0x08003d85   Thumb Code     8  sys_exit.o(.text)
    __I$use$semihosting                      0x08003d91   Thumb Code     0  use_no_semi.o(.text)
    __use_no_semihosting_swi                 0x08003d91   Thumb Code     2  use_no_semi.o(.text)
    __semihosting_library_function           0x08003d93   Thumb Code     0  indicate_semi.o(.text)
    __aeabi_d2f                              0x08003d95   Thumb Code     0  d2f.o(x$fpl$d2f)
    _d2f                                     0x08003d95   Thumb Code    98  d2f.o(x$fpl$d2f)
    __aeabi_dadd                             0x08003df9   Thumb Code     0  daddsub_clz.o(x$fpl$dadd)
    _dadd                                    0x08003df9   Thumb Code   332  daddsub_clz.o(x$fpl$dadd)
    __aeabi_i2d                              0x08003f49   Thumb Code     0  dflt_clz.o(x$fpl$dflt)
    _dflt                                    0x08003f49   Thumb Code    46  dflt_clz.o(x$fpl$dflt)
    __aeabi_ui2d                             0x08003f77   Thumb Code     0  dflt_clz.o(x$fpl$dfltu)
    _dfltu                                   0x08003f77   Thumb Code    38  dflt_clz.o(x$fpl$dfltu)
    __aeabi_dmul                             0x08003f9d   Thumb Code     0  dmul.o(x$fpl$dmul)
    _dmul                                    0x08003f9d   Thumb Code   332  dmul.o(x$fpl$dmul)
    __fpl_dnaninf                            0x080040f1   Thumb Code   156  dnaninf.o(x$fpl$dnaninf)
    __fpl_dretinf                            0x0800418d   Thumb Code    12  dretinf.o(x$fpl$dretinf)
    __aeabi_dsub                             0x08004199   Thumb Code     0  daddsub_clz.o(x$fpl$dsub)
    _dsub                                    0x08004199   Thumb Code   472  daddsub_clz.o(x$fpl$dsub)
    __aeabi_f2d                              0x08004375   Thumb Code     0  f2d.o(x$fpl$f2d)
    _f2d                                     0x08004375   Thumb Code    86  f2d.o(x$fpl$f2d)
    __aeabi_fadd                             0x080043cd   Thumb Code     0  faddsub_clz.o(x$fpl$fadd)
    _fadd                                    0x080043cd   Thumb Code   196  faddsub_clz.o(x$fpl$fadd)
    __aeabi_fcmpeq                           0x08004491   Thumb Code     0  fcmp.o(x$fpl$fcmp)
    _feq                                     0x08004491   Thumb Code    14  fcmp.o(x$fpl$fcmp)
    _fneq                                    0x0800449f   Thumb Code    14  fcmp.o(x$fpl$fcmp)
    __aeabi_fcmpgt                           0x080044ad   Thumb Code     0  fcmp.o(x$fpl$fcmp)
    _fgr                                     0x080044ad   Thumb Code    14  fcmp.o(x$fpl$fcmp)
    __aeabi_fcmpge                           0x080044bb   Thumb Code     0  fcmp.o(x$fpl$fcmp)
    _fgeq                                    0x080044bb   Thumb Code    14  fcmp.o(x$fpl$fcmp)
    __aeabi_fcmple                           0x080044c9   Thumb Code     0  fcmp.o(x$fpl$fcmp)
    _fleq                                    0x080044c9   Thumb Code    14  fcmp.o(x$fpl$fcmp)
    __aeabi_fcmplt                           0x080044d7   Thumb Code     0  fcmp.o(x$fpl$fcmp)
    _fls                                     0x080044d7   Thumb Code    14  fcmp.o(x$fpl$fcmp)
    __fpl_fcmp_Inf                           0x080044e5   Thumb Code    24  fcmpi.o(x$fpl$fcmpinf)
    __aeabi_fdiv                             0x080044fd   Thumb Code     0  fdiv.o(x$fpl$fdiv)
    _fdiv                                    0x080044fd   Thumb Code   384  fdiv.o(x$fpl$fdiv)
    __aeabi_cfcmpeq                          0x08004681   Thumb Code     0  feqf.o(x$fpl$feqf)
    _fcmpeq                                  0x08004681   Thumb Code   104  feqf.o(x$fpl$feqf)
    __aeabi_f2iz                             0x080046e9   Thumb Code     0  ffix.o(x$fpl$ffix)
    _ffix                                    0x080046e9   Thumb Code    54  ffix.o(x$fpl$ffix)
    __aeabi_i2f                              0x08004721   Thumb Code     0  fflt_clz.o(x$fpl$fflt)
    _fflt                                    0x08004721   Thumb Code    48  fflt_clz.o(x$fpl$fflt)
    __aeabi_ui2f                             0x08004751   Thumb Code     0  fflt_clz.o(x$fpl$ffltu)
    _ffltu                                   0x08004751   Thumb Code    38  fflt_clz.o(x$fpl$ffltu)
    _fcmpge                                  0x08004779   Thumb Code   104  fgeqf.o(x$fpl$fgeqf)
    __aeabi_cfcmple                          0x080047e1   Thumb Code     0  fleqf.o(x$fpl$fleqf)
    _fcmple                                  0x080047e1   Thumb Code   104  fleqf.o(x$fpl$fleqf)
    __fpl_fcmple_InfNaN                      0x08004833   Thumb Code     0  fleqf.o(x$fpl$fleqf)
    __aeabi_fmul                             0x08004849   Thumb Code     0  fmul.o(x$fpl$fmul)
    _fmul                                    0x08004849   Thumb Code   258  fmul.o(x$fpl$fmul)
    __fpl_fnaninf                            0x0800494b   Thumb Code   140  fnaninf.o(x$fpl$fnaninf)
    __fpl_fretinf                            0x080049d7   Thumb Code    10  fretinf.o(x$fpl$fretinf)
    __aeabi_fsub                             0x080049e1   Thumb Code     0  faddsub_clz.o(x$fpl$fsub)
    _fsub                                    0x080049e1   Thumb Code   234  faddsub_clz.o(x$fpl$fsub)
    __I$use$fp                               0x08004aca   Number         0  usenofp.o(x$fpl$usenofp)
    hall_to_pos                              0x08004ad2   Data           8  bldc.o(.rodata.hall_to_pos)
    lookUpTableAngle                         0x08004adc   Data         724  main.o(.rodata.lookUpTableAngle)
    Region$$Table$$Base                      0x08004db0   Number         0  anon$$obj.o(Region$$Table)
    Region$$Table$$Limit                     0x08004dd0   Number         0  anon$$obj.o(Region$$Table)
    SystemCoreClock                          0x20000000   Data           4  system_gd32f10x.o(.data.SystemCoreClock)
    batteryVoltage                           0x20000004   Data           4  bldc.o(.data.batteryVoltage)
    offsetdc                                 0x20000008   Data           2  bldc.o(.data.offsetdc)
    timedOut                                 0x2000000a   Data           1  it.o(.data.timedOut)
    __libspace_start                         0x20000010   Data          96  libspace.o(.bss)
    __temporary_stack_top$libspace           0x20000070   Data           0  libspace.o(.bss)
    adc_buffer                               0x20000070   Data           4  bldc.o(.bss.adc_buffer)
    beepsBackwards                           0x20000074   Data           1  main.o(.bss.beepsBackwards)
    bldc_enable                              0x20000075   Data           1  bldc.o(.bss.bldc_enable)
    bldc_inputFilterPwm                      0x20000076   Data           2  bldc.o(.bss.bldc_inputFilterPwm)
    bldc_outputFilterPwm                     0x20000078   Data           2  bldc.o(.bss.bldc_outputFilterPwm)
    buzzerFreq                               0x2000007a   Data           1  bldc.o(.bss.buzzerFreq)
    buzzerPattern                            0x2000007b   Data           1  bldc.o(.bss.buzzerPattern)
    buzzerTimer                              0x2000007c   Data           2  bldc.o(.bss.buzzerTimer)
    buzzerToggle                             0x2000007e   Data           1  bldc.o(.bss.buzzerToggle)
    currentDC                                0x20000080   Data           4  bldc.o(.bss.currentDC)
    dma_init_struct_adc                      0x20000084   Data          28  setup.o(.bss.dma_init_struct_adc)
    dma_init_struct_usart                    0x200000a0   Data          28  setup.o(.bss.dma_init_struct_usart)
    filter_reg                               0x200000bc   Data           4  bldc.o(.bss.filter_reg)
    hall                                     0x200000c0   Data           1  bldc.o(.bss.hall)
    hall_a                                   0x200000c1   Data           1  bldc.o(.bss.hall_a)
    hall_b                                   0x200000c2   Data           1  bldc.o(.bss.hall_b)
    hall_c                                   0x200000c3   Data           1  bldc.o(.bss.hall_c)
    inactivity_timeout_counter               0x200000c4   Data           4  main.o(.bss.inactivity_timeout_counter)
    lastPos                                  0x200000c8   Data           1  bldc.o(.bss.lastPos)
    msTicks                                  0x200000cc   Data           4  it.o(.bss.msTicks)
    offsetcount                              0x200000d0   Data           2  bldc.o(.bss.offsetcount)
    pos                                      0x200000d2   Data           1  bldc.o(.bss.pos)
    realSpeed                                0x200000d4   Data           4  bldc.o(.bss.realSpeed)
    speed                                    0x200000ec   Data           4  main.o(.bss.speed)
    speedCounter                             0x200000f0   Data           4  bldc.o(.bss.speedCounter)
    steer                                    0x200000f4   Data           4  main.o(.bss.steer)
    steerCounter                             0x200000f8   Data           4  main.o(.bss.steerCounter)
    timeoutCounter_ms                        0x200000fc   Data           4  it.o(.bss.timeoutCounter_ms)
    timeoutTimer_paramter_struct             0x20000100   Data          16  setup.o(.bss.timeoutTimer_paramter_struct)
    timerBldc_break_parameter_struct         0x20000110   Data          14  setup.o(.bss.timerBldc_break_parameter_struct)
    timerBldc_oc_parameter_struct            0x2000011e   Data          12  setup.o(.bss.timerBldc_oc_parameter_struct)
    timerBldc_paramter_struct                0x2000012c   Data          16  setup.o(.bss.timerBldc_paramter_struct)
    usartMasterSlave_rx_buf                  0x2000013c   Data           1  setup.o(.bss.usartMasterSlave_rx_buf)
    usartSteer_COM_rx_buf                    0x2000013d   Data           1  setup.o(.bss.usartSteer_COM_rx_buf)



==============================================================================

Memory Map of the image

  Image Entry point : 0x08000131

  Load Region LR_IROM1 (Base: 0x08000000, Size: 0x00004de0, Max: 0x00010000, ABSOLUTE)

    Execution Region ER_IROM1 (Exec base: 0x08000000, Load base: 0x08000000, Size: 0x00004dd0, Max: 0x00010000, ABSOLUTE)

    Exec Addr    Load Addr    Size         Type   Attr      Idx    E Section Name        Object

    0x08000000   0x08000000   0x00000130   Data   RO          211    RESET               startup_gd32f10x_hd.o
    0x08000130   0x08000130   0x00000008   Code   RO          232  * !!!main             c_w.l(__main.o)
    0x08000138   0x08000138   0x00000034   Code   RO          456    !!!scatter          c_w.l(__scatter.o)
    0x0800016c   0x0800016c   0x0000001a   Code   RO          458    !!handler_copy      c_w.l(__scatter_copy.o)
    0x08000186   0x08000186   0x00000002   PAD
    0x08000188   0x08000188   0x0000001c   Code   RO          460    !!handler_zi        c_w.l(__scatter_zi.o)
    0x080001a4   0x080001a4   0x00000002   Code   RO          318    .ARM.Collect$$libinit$$00000000  c_w.l(libinit.o)
    0x080001a6   0x080001a6   0x00000000   Code   RO          325    .ARM.Collect$$libinit$$00000002  c_w.l(libinit2.o)
    0x080001a6   0x080001a6   0x00000000   Code   RO          327    .ARM.Collect$$libinit$$00000004  c_w.l(libinit2.o)
    0x080001a6   0x080001a6   0x00000000   Code   RO          329    .ARM.Collect$$libinit$$00000006  c_w.l(libinit2.o)
    0x080001a6   0x080001a6   0x00000000   Code   RO          332    .ARM.Collect$$libinit$$0000000C  c_w.l(libinit2.o)
    0x080001a6   0x080001a6   0x00000000   Code   RO          334    .ARM.Collect$$libinit$$0000000E  c_w.l(libinit2.o)
    0x080001a6   0x080001a6   0x00000000   Code   RO          336    .ARM.Collect$$libinit$$00000010  c_w.l(libinit2.o)
    0x080001a6   0x080001a6   0x00000000   Code   RO          339    .ARM.Collect$$libinit$$00000013  c_w.l(libinit2.o)
    0x080001a6   0x080001a6   0x00000000   Code   RO          341    .ARM.Collect$$libinit$$00000015  c_w.l(libinit2.o)
    0x080001a6   0x080001a6   0x00000000   Code   RO          343    .ARM.Collect$$libinit$$00000017  c_w.l(libinit2.o)
    0x080001a6   0x080001a6   0x00000000   Code   RO          345    .ARM.Collect$$libinit$$00000019  c_w.l(libinit2.o)
    0x080001a6   0x080001a6   0x00000000   Code   RO          347    .ARM.Collect$$libinit$$0000001B  c_w.l(libinit2.o)
    0x080001a6   0x080001a6   0x00000000   Code   RO          349    .ARM.Collect$$libinit$$0000001D  c_w.l(libinit2.o)
    0x080001a6   0x080001a6   0x00000000   Code   RO          351    .ARM.Collect$$libinit$$0000001F  c_w.l(libinit2.o)
    0x080001a6   0x080001a6   0x00000000   Code   RO          353    .ARM.Collect$$libinit$$00000021  c_w.l(libinit2.o)
    0x080001a6   0x080001a6   0x00000000   Code   RO          355    .ARM.Collect$$libinit$$00000023  c_w.l(libinit2.o)
    0x080001a6   0x080001a6   0x00000000   Code   RO          357    .ARM.Collect$$libinit$$00000025  c_w.l(libinit2.o)
    0x080001a6   0x080001a6   0x00000000   Code   RO          359    .ARM.Collect$$libinit$$00000027  c_w.l(libinit2.o)
    0x080001a6   0x080001a6   0x00000000   Code   RO          363    .ARM.Collect$$libinit$$0000002E  c_w.l(libinit2.o)
    0x080001a6   0x080001a6   0x00000000   Code   RO          365    .ARM.Collect$$libinit$$00000030  c_w.l(libinit2.o)
    0x080001a6   0x080001a6   0x00000000   Code   RO          367    .ARM.Collect$$libinit$$00000032  c_w.l(libinit2.o)
    0x080001a6   0x080001a6   0x00000000   Code   RO          369    .ARM.Collect$$libinit$$00000034  c_w.l(libinit2.o)
    0x080001a6   0x080001a6   0x00000002   Code   RO          370    .ARM.Collect$$libinit$$00000035  c_w.l(libinit2.o)
    0x080001a8   0x080001a8   0x00000002   Code   RO          392    .ARM.Collect$$libshutdown$$00000000  c_w.l(libshutdown.o)
    0x080001aa   0x080001aa   0x00000000   Code   RO          407    .ARM.Collect$$libshutdown$$00000002  c_w.l(libshutdown2.o)
    0x080001aa   0x080001aa   0x00000000   Code   RO          409    .ARM.Collect$$libshutdown$$00000004  c_w.l(libshutdown2.o)
    0x080001aa   0x080001aa   0x00000000   Code   RO          412    .ARM.Collect$$libshutdown$$00000007  c_w.l(libshutdown2.o)
    0x080001aa   0x080001aa   0x00000000   Code   RO          415    .ARM.Collect$$libshutdown$$0000000A  c_w.l(libshutdown2.o)
    0x080001aa   0x080001aa   0x00000000   Code   RO          417    .ARM.Collect$$libshutdown$$0000000C  c_w.l(libshutdown2.o)
    0x080001aa   0x080001aa   0x00000000   Code   RO          420    .ARM.Collect$$libshutdown$$0000000F  c_w.l(libshutdown2.o)
    0x080001aa   0x080001aa   0x00000002   Code   RO          421    .ARM.Collect$$libshutdown$$00000010  c_w.l(libshutdown2.o)
    0x080001ac   0x080001ac   0x00000000   Code   RO          276    .ARM.Collect$$rtentry$$00000000  c_w.l(__rtentry.o)
    0x080001ac   0x080001ac   0x00000000   Code   RO          293    .ARM.Collect$$rtentry$$00000002  c_w.l(__rtentry2.o)
    0x080001ac   0x080001ac   0x00000006   Code   RO          305    .ARM.Collect$$rtentry$$00000004  c_w.l(__rtentry4.o)
    0x080001b2   0x080001b2   0x00000000   Code   RO          295    .ARM.Collect$$rtentry$$00000009  c_w.l(__rtentry2.o)
    0x080001b2   0x080001b2   0x00000004   Code   RO          296    .ARM.Collect$$rtentry$$0000000A  c_w.l(__rtentry2.o)
    0x080001b6   0x080001b6   0x00000000   Code   RO          298    .ARM.Collect$$rtentry$$0000000C  c_w.l(__rtentry2.o)
    0x080001b6   0x080001b6   0x00000008   Code   RO          299    .ARM.Collect$$rtentry$$0000000D  c_w.l(__rtentry2.o)
    0x080001be   0x080001be   0x00000002   Code   RO          322    .ARM.Collect$$rtexit$$00000000  c_w.l(rtexit.o)
    0x080001c0   0x080001c0   0x00000000   Code   RO          372    .ARM.Collect$$rtexit$$00000002  c_w.l(rtexit2.o)
    0x080001c0   0x080001c0   0x00000004   Code   RO          373    .ARM.Collect$$rtexit$$00000003  c_w.l(rtexit2.o)
    0x080001c4   0x080001c4   0x00000006   Code   RO          374    .ARM.Collect$$rtexit$$00000004  c_w.l(rtexit2.o)
    0x080001ca   0x080001ca   0x00000002   PAD
    0x080001cc   0x080001cc   0x0000035a   Code   RO            1    .text               main.o
    0x08000526   0x08000526   0x00000002   PAD
    0x08000528   0x08000528   0x00000376   Code   RO           18    .text               bldc.o
    0x0800089e   0x0800089e   0x00000002   PAD
    0x080008a0   0x080008a0   0x000006d8   Code   RO           50    .text               setup.o
    0x08000f78   0x08000f78   0x0000018a   Code   RO           65    .text               it.o
    0x08001102   0x08001102   0x00000002   PAD
    0x08001104   0x08001104   0x0000019c   Code   RO           76    .text               comms.o
    0x080012a0   0x080012a0   0x00000124   Code   RO           85    .text               commssteering.o
    0x080013c4   0x080013c4   0x0000014e   Code   RO           97    .text               commsmasterslave.o
    0x08001512   0x08001512   0x00000002   PAD
    0x08001514   0x08001514   0x000004e8   Code   RO          110    .text               gd32f10x_adc.o
    0x080019fc   0x080019fc   0x00000402   Code   RO          126    .text               gd32f10x_dma.o
    0x08001dfe   0x08001dfe   0x00000002   PAD
    0x08001e00   0x08001e00   0x00000116   Code   RO          134    .text               gd32f10x_fwdgt.o
    0x08001f16   0x08001f16   0x00000002   PAD
    0x08001f18   0x08001f18   0x0000047c   Code   RO          142    .text               gd32f10x_gpio.o
    0x08002394   0x08002394   0x000000ec   Code   RO          158    .text               gd32f10x_misc.o
    0x08002480   0x08002480   0x00000600   Code   RO          174    .text               gd32f10x_rcu.o
    0x08002a80   0x08002a80   0x00000d72   Code   RO          184    .text               gd32f10x_timer.o
    0x080037f2   0x080037f2   0x00000002   PAD
    0x080037f4   0x080037f4   0x00000364   Code   RO          193    .text               gd32f10x_usart.o
    0x08003b58   0x08003b58   0x00000040   Code   RO          212    .text               startup_gd32f10x_hd.o
    0x08003b98   0x08003b98   0x00000182   Code   RO          218    .text               system_gd32f10x.o
    0x08003d1a   0x08003d1a   0x00000006   Code   RO          230    .text               c_w.l(heapauxi.o)
    0x08003d20   0x08003d20   0x0000004a   Code   RO          309    .text               c_w.l(sys_stackheap_outer.o)
    0x08003d6a   0x08003d6a   0x00000012   Code   RO          311    .text               c_w.l(exit.o)
    0x08003d7c   0x08003d7c   0x00000008   Code   RO          319    .text               c_w.l(libspace.o)
    0x08003d84   0x08003d84   0x0000000c   Code   RO          382    .text               c_w.l(sys_exit.o)
    0x08003d90   0x08003d90   0x00000002   Code   RO          397    .text               c_w.l(use_no_semi.o)
    0x08003d92   0x08003d92   0x00000000   Code   RO          399    .text               c_w.l(indicate_semi.o)
    0x08003d92   0x08003d92   0x00000002   PAD
    0x08003d94   0x08003d94   0x00000062   Code   RO          234    x$fpl$d2f           fz_ws.l(d2f.o)
    0x08003df6   0x08003df6   0x00000002   PAD
    0x08003df8   0x08003df8   0x00000150   Code   RO          236    x$fpl$dadd          fz_ws.l(daddsub_clz.o)
    0x08003f48   0x08003f48   0x0000002e   Code   RO          243    x$fpl$dflt          fz_ws.l(dflt_clz.o)
    0x08003f76   0x08003f76   0x00000026   Code   RO          242    x$fpl$dfltu         fz_ws.l(dflt_clz.o)
    0x08003f9c   0x08003f9c   0x00000154   Code   RO          248    x$fpl$dmul          fz_ws.l(dmul.o)
    0x080040f0   0x080040f0   0x0000009c   Code   RO          277    x$fpl$dnaninf       fz_ws.l(dnaninf.o)
    0x0800418c   0x0800418c   0x0000000c   Code   RO          279    x$fpl$dretinf       fz_ws.l(dretinf.o)
    0x08004198   0x08004198   0x000001dc   Code   RO          238    x$fpl$dsub          fz_ws.l(daddsub_clz.o)
    0x08004374   0x08004374   0x00000056   Code   RO          250    x$fpl$f2d           fz_ws.l(f2d.o)
    0x080043ca   0x080043ca   0x00000002   PAD
    0x080043cc   0x080043cc   0x000000c4   Code   RO          252    x$fpl$fadd          fz_ws.l(faddsub_clz.o)
    0x08004490   0x08004490   0x00000054   Code   RO          258    x$fpl$fcmp          fz_ws.l(fcmp.o)
    0x080044e4   0x080044e4   0x00000018   Code   RO          307    x$fpl$fcmpinf       fz_ws.l(fcmpi.o)
    0x080044fc   0x080044fc   0x00000184   Code   RO          261    x$fpl$fdiv          fz_ws.l(fdiv.o)
    0x08004680   0x08004680   0x00000068   Code   RO          281    x$fpl$feqf          fz_ws.l(feqf.o)
    0x080046e8   0x080046e8   0x00000036   Code   RO          264    x$fpl$ffix          fz_ws.l(ffix.o)
    0x0800471e   0x0800471e   0x00000002   PAD
    0x08004720   0x08004720   0x00000030   Code   RO          269    x$fpl$fflt          fz_ws.l(fflt_clz.o)
    0x08004750   0x08004750   0x00000026   Code   RO          268    x$fpl$ffltu         fz_ws.l(fflt_clz.o)
    0x08004776   0x08004776   0x00000002   PAD
    0x08004778   0x08004778   0x00000068   Code   RO          283    x$fpl$fgeqf         fz_ws.l(fgeqf.o)
    0x080047e0   0x080047e0   0x00000068   Code   RO          285    x$fpl$fleqf         fz_ws.l(fleqf.o)
    0x08004848   0x08004848   0x00000102   Code   RO          274    x$fpl$fmul          fz_ws.l(fmul.o)
    0x0800494a   0x0800494a   0x0000008c   Code   RO          287    x$fpl$fnaninf       fz_ws.l(fnaninf.o)
    0x080049d6   0x080049d6   0x0000000a   Code   RO          289    x$fpl$fretinf       fz_ws.l(fretinf.o)
    0x080049e0   0x080049e0   0x000000ea   Code   RO          254    x$fpl$fsub          fz_ws.l(faddsub_clz.o)
    0x08004aca   0x08004aca   0x00000000   Code   RO          291    x$fpl$usenofp       fz_ws.l(usenofp.o)
    0x08004aca   0x08004aca   0x00000008   Data   RO          176    .rodata.cst8        gd32f10x_rcu.o
    0x08004ad2   0x08004ad2   0x00000008   Data   RO           34    .rodata.hall_to_pos  bldc.o
    0x08004ada   0x08004ada   0x00000002   PAD
    0x08004adc   0x08004adc   0x000002d4   Data   RO           10    .rodata.lookUpTableAngle  main.o
    0x08004db0   0x08004db0   0x00000020   Data   RO          455    Region$$Table       anon$$obj.o


    Execution Region RW_IRAM1 (Exec base: 0x20000000, Load base: 0x08004dd0, Size: 0x00004140, Max: 0x00005000, ABSOLUTE)

    Exec Addr    Load Addr    Size         Type   Attr      Idx    E Section Name        Object

    0x20000000   0x08004dd0   0x00000004   Data   RW          220    .data.SystemCoreClock  system_gd32f10x.o
    0x20000004   0x08004dd4   0x00000004   Data   RW           21    .data.batteryVoltage  bldc.o
    0x20000008   0x08004dd8   0x00000002   Data   RW           32    .data.offsetdc      bldc.o
    0x2000000a   0x08004dda   0x00000001   Data   RW           68    .data.timedOut      it.o
    0x2000000b   0x08004ddb   0x00000005   PAD
    0x20000010        -       0x00000060   Zero   RW          320    .bss                c_w.l(libspace.o)
    0x20000070        -       0x00000004   Zero   RW           35    .bss.adc_buffer     bldc.o
    0x20000074        -       0x00000001   Zero   RW            6    .bss.beepsBackwards  main.o
    0x20000075        -       0x00000001   Zero   RW           25    .bss.bldc_enable    bldc.o
    0x20000076        -       0x00000002   Zero   RW           24    .bss.bldc_inputFilterPwm  bldc.o
    0x20000078        -       0x00000002   Zero   RW           26    .bss.bldc_outputFilterPwm  bldc.o
    0x2000007a        -       0x00000001   Zero   RW           28    .bss.buzzerFreq     bldc.o
    0x2000007b        -       0x00000001   Zero   RW           29    .bss.buzzerPattern  bldc.o
    0x2000007c        -       0x00000002   Zero   RW           30    .bss.buzzerTimer    bldc.o
    0x2000007e        -       0x00000001   Zero   RW           27    .bss.buzzerToggle   bldc.o
    0x2000007f   0x08004ddb   0x00000001   PAD
    0x20000080        -       0x00000004   Zero   RW           22    .bss.currentDC      bldc.o
    0x20000084        -       0x0000001c   Zero   RW           56    .bss.dma_init_struct_adc  setup.o
    0x200000a0        -       0x0000001c   Zero   RW           57    .bss.dma_init_struct_usart  setup.o
    0x200000bc        -       0x00000004   Zero   RW           41    .bss.filter_reg     bldc.o
    0x200000c0        -       0x00000001   Zero   RW           39    .bss.hall           bldc.o
    0x200000c1        -       0x00000001   Zero   RW           36    .bss.hall_a         bldc.o
    0x200000c2        -       0x00000001   Zero   RW           37    .bss.hall_b         bldc.o
    0x200000c3        -       0x00000001   Zero   RW           38    .bss.hall_c         bldc.o
    0x200000c4        -       0x00000004   Zero   RW            8    .bss.inactivity_timeout_counter  main.o
    0x200000c8        -       0x00000001   Zero   RW           42    .bss.lastPos        bldc.o
    0x200000c9   0x08004ddb   0x00000003   PAD
    0x200000cc        -       0x00000004   Zero   RW           69    .bss.msTicks        it.o
    0x200000d0        -       0x00000002   Zero   RW           31    .bss.offsetcount    bldc.o
    0x200000d2        -       0x00000001   Zero   RW           40    .bss.pos            bldc.o
    0x200000d3   0x08004ddb   0x00000001   PAD
    0x200000d4        -       0x00000004   Zero   RW           23    .bss.realSpeed      bldc.o
    0x200000d8        -       0x00000001   Zero   RW          100    .bss.sMasterSlaveRecord  commsmasterslave.o
    0x200000d9        -       0x00000001   Zero   RW           88    .bss.sSteerRecord   commssteering.o
    0x200000da        -       0x00000005   Zero   RW          101    .bss.sUSARTMasterSlaveRecordBuffer  commsmasterslave.o
    0x200000df        -       0x00000001   Zero   RW           99    .bss.sUSARTMasterSlaveRecordBufferCounter  commsmasterslave.o
    0x200000e0        -       0x00000008   Zero   RW           89    .bss.sUSARTSteerRecordBuffer  commssteering.o
    0x200000e8        -       0x00000001   Zero   RW           87    .bss.sUSARTSteerRecordBufferCounter  commssteering.o
    0x200000e9   0x08004ddb   0x00000003   PAD
    0x200000ec        -       0x00000004   Zero   RW            4    .bss.speed          main.o
    0x200000f0        -       0x00000004   Zero   RW           33    .bss.speedCounter   bldc.o
    0x200000f4        -       0x00000004   Zero   RW            3    .bss.steer          main.o
    0x200000f8        -       0x00000004   Zero   RW            9    .bss.steerCounter   main.o
    0x200000fc        -       0x00000004   Zero   RW           67    .bss.timeoutCounter_ms  it.o
    0x20000100        -       0x00000010   Zero   RW           52    .bss.timeoutTimer_paramter_struct  setup.o
    0x20000110        -       0x0000000e   Zero   RW           55    .bss.timerBldc_break_parameter_struct  setup.o
    0x2000011e        -       0x0000000c   Zero   RW           54    .bss.timerBldc_oc_parameter_struct  setup.o
    0x2000012a   0x08004ddb   0x00000002   PAD
    0x2000012c        -       0x00000010   Zero   RW           53    .bss.timerBldc_paramter_struct  setup.o
    0x2000013c        -       0x00000001   Zero   RW           58    .bss.usartMasterSlave_rx_buf  setup.o
    0x2000013d        -       0x00000001   Zero   RW           59    .bss.usartSteer_COM_rx_buf  setup.o
    0x2000013e   0x08004ddb   0x00000002   PAD
    0x20000140        -       0x00002000   Zero   RW          210    HEAP                startup_gd32f10x_hd.o
    0x20002140        -       0x00002000   Zero   RW          209    STACK               startup_gd32f10x_hd.o


==============================================================================

Image component sizes


      Code (inc. data)   RO Data    RW Data    ZI Data      Debug   Object Name

       886          6          8          6         38       2985   bldc.o
       412          0          0          0          0       2369   comms.o
       334          0          0          0          7       2875   commsmasterslave.o
       292          0          0          0         10       1772   commssteering.o
      1256         12          0          0          0       8289   gd32f10x_adc.o
      1026          0          0          0          0       6963   gd32f10x_dma.o
       278          0          0          0          0       2017   gd32f10x_fwdgt.o
      1148          0          0          0          0       6195   gd32f10x_gpio.o
       236          0          0          0          0       3259   gd32f10x_misc.o
      1536         20          8          0          0      12815   gd32f10x_rcu.o
      3442         36          0          0          0      17928   gd32f10x_timer.o
       868          0          0          0          0       8525   gd32f10x_usart.o
       394          0          0          1          8       2580   it.o
       858          0        724          0         17       5535   main.o
      1752          0          0          0        116       5976   setup.o
        64         26        304          0      16384        904   startup_gd32f10x_hd.o
       386          0          0          4          0       1616   system_gd32f10x.o

    ----------------------------------------------------------------------
     15182        100       1078         12      16596      92603   Object Totals
         0          0         32          0          0          0   (incl. Generated)
        14          0          2          1         16          0   (incl. Padding)

    ----------------------------------------------------------------------

      Code (inc. data)   RO Data    RW Data    ZI Data      Debug   Library Member Name

         8          0          0          0          0         68   __main.o
         0          0          0          0          0          0   __rtentry.o
        12          0          0          0          0          0   __rtentry2.o
         6          0          0          0          0          0   __rtentry4.o
        52          8          0          0          0          0   __scatter.o
        26          0          0          0          0          0   __scatter_copy.o
        28          0          0          0          0          0   __scatter_zi.o
        18          0          0          0          0         80   exit.o
         6          0          0          0          0        152   heapauxi.o
         0          0          0          0          0          0   indicate_semi.o
         2          0          0          0          0          0   libinit.o
         2          0          0          0          0          0   libinit2.o
         2          0          0          0          0          0   libshutdown.o
         2          0          0          0          0          0   libshutdown2.o
         8          4          0          0         96         68   libspace.o
         2          0          0          0          0          0   rtexit.o
        10          0          0          0          0          0   rtexit2.o
        12          4          0          0          0         68   sys_exit.o
        74          0          0          0          0         80   sys_stackheap_outer.o
         2          0          0          0          0         68   use_no_semi.o
        98          4          0          0          0         92   d2f.o
       812         16          0          0          0        296   daddsub_clz.o
        84          0          0          0          0        136   dflt_clz.o
       340         12          0          0          0        104   dmul.o
       156          4          0          0          0         92   dnaninf.o
        12          0          0          0          0         68   dretinf.o
        86          4          0          0          0         84   f2d.o
       430          8          0          0          0        168   faddsub_clz.o
        84          0          0          0          0        196   fcmp.o
        24          0          0          0          0         68   fcmpi.o
       388         76          0          0          0         96   fdiv.o
       104          4          0          0          0         84   feqf.o
        54          4          0          0          0         84   ffix.o
        86          0          0          0          0        136   fflt_clz.o
       104          4          0          0          0         84   fgeqf.o
       104          4          0          0          0         84   fleqf.o
       258          4          0          0          0         84   fmul.o
       140          4          0          0          0         84   fnaninf.o
        10          0          0          0          0         68   fretinf.o
         0          0          0          0          0          0   usenofp.o

    ----------------------------------------------------------------------
      3660        164          0          0         96       2692   Library Totals
        14          0          0          0          0          0   (incl. Padding)

    ----------------------------------------------------------------------

      Code (inc. data)   RO Data    RW Data    ZI Data      Debug   Library Name

       272         16          0          0         96        584   c_w.l
      3374        148          0          0          0       2108   fz_ws.l

    ----------------------------------------------------------------------
      3660        164          0          0         96       2692   Library Totals

    ----------------------------------------------------------------------

==============================================================================


      Code (inc. data)   RO Data    RW Data    ZI Data      Debug   

     18842        264       1078         12      16692      93691   Grand Totals
     18842        264       1078         12      16692      93691   ELF Image Totals
     18842        264       1078         12          0          0   ROM Totals

==============================================================================

    Total RO  Size (Code + RO Data)                19920 (  19.45kB)
    Total RW  Size (RW Data + ZI Data)             16704 (  16.31kB)
    Total ROM Size (Code + RO Data + RW Data)      19932 (  19.46kB)

==============================================================================

